Archive member included because of file (symbol)

c:/yagarto-20121222/bin/../lib/gcc/arm-none-eabi/4.7.2\libgcc.a(_udivsi3.o)
                              .obj/source/hardware/s5p6818-pwm.o (__aeabi_uidiv)
c:/yagarto-20121222/bin/../lib/gcc/arm-none-eabi/4.7.2\libgcc.a(_divsi3.o)
                              .obj/source/library/stdlib/div.o (__aeabi_idiv)
c:/yagarto-20121222/bin/../lib/gcc/arm-none-eabi/4.7.2\libgcc.a(_dvmd_tls.o)
                              c:/yagarto-20121222/bin/../lib/gcc/arm-none-eabi/4.7.2\libgcc.a(_udivsi3.o) (__aeabi_idiv0)
c:/yagarto-20121222/bin/../lib/gcc/arm-none-eabi/4.7.2\libgcc.a(_aeabi_ldivmod.o)
                              .obj/source/library/stdlib/lldiv.o (__aeabi_ldivmod)
c:/yagarto-20121222/bin/../lib/gcc/arm-none-eabi/4.7.2\libgcc.a(_aeabi_uldivmod.o)
                              .obj/source/hardware/s5p6818-clk.o (__aeabi_uldivmod)
c:/yagarto-20121222/bin/../lib/gcc/arm-none-eabi/4.7.2\libgcc.a(bpabi.o)
                              c:/yagarto-20121222/bin/../lib/gcc/arm-none-eabi/4.7.2\libgcc.a(_aeabi_ldivmod.o) (__gnu_ldivmod_helper)
c:/yagarto-20121222/bin/../lib/gcc/arm-none-eabi/4.7.2\libgcc.a(_divdi3.o)
                              c:/yagarto-20121222/bin/../lib/gcc/arm-none-eabi/4.7.2\libgcc.a(bpabi.o) (__divdi3)
c:/yagarto-20121222/bin/../lib/gcc/arm-none-eabi/4.7.2\libgcc.a(_udivdi3.o)
                              c:/yagarto-20121222/bin/../lib/gcc/arm-none-eabi/4.7.2\libgcc.a(bpabi.o) (__udivdi3)
c:/yagarto-20121222/bin/../lib/gcc/arm-none-eabi/4.7.2\libgcc.a(unwind-arm.o)
                              c:/yagarto-20121222/bin/../lib/gcc/arm-none-eabi/4.7.2\libgcc.a(_divdi3.o) (__aeabi_unwind_cpp_pr0)
c:/yagarto-20121222/bin/../lib/gcc/arm-none-eabi/4.7.2\libgcc.a(libunwind.o)
                              c:/yagarto-20121222/bin/../lib/gcc/arm-none-eabi/4.7.2\libgcc.a(unwind-arm.o) (restore_core_regs)
c:/yagarto-20121222/bin/../lib/gcc/arm-none-eabi/4.7.2\libgcc.a(pr-support.o)
                              c:/yagarto-20121222/bin/../lib/gcc/arm-none-eabi/4.7.2\libgcc.a(unwind-arm.o) (__gnu_unwind_execute)
c:/yagarto-20121222/bin/../lib/gcc/arm-none-eabi/4.7.2\libgcc.a(_clzsi2.o)
                              c:/yagarto-20121222/bin/../lib/gcc/arm-none-eabi/4.7.2\libgcc.a(_divdi3.o) (__clzsi2)

Allocating common symbols
Common symbol       size              file

key_st              0x1               .obj/source/tester-key-with-led.o

Memory Configuration

Name             Origin             Length             Attributes
rom              0x43c00000         0x02000000         xr
ram              0x45100000         0x0a000000         xrw
*default*        0x00000000         0xffffffff

Linker script and memory map

LOAD .obj/source/startup/start.o
LOAD .obj/source/arm/memcmp.o
LOAD .obj/source/arm/memcpy.o
LOAD .obj/source/arm/memmove.o
LOAD .obj/source/arm/memset.o
LOAD .obj/source/arm/strcmp.o
LOAD .obj/source/arm/strncmp.o
LOAD .obj/source/main.o
LOAD .obj/source/tester-key-with-led.o
LOAD .obj/source/hardware/hw-beep.o
LOAD .obj/source/hardware/hw-key.o
LOAD .obj/source/hardware/hw-led.o
LOAD .obj/source/hardware/s5p6818-alv.o
LOAD .obj/source/hardware/s5p6818-clk.o
LOAD .obj/source/hardware/s5p6818-fb.o
LOAD .obj/source/hardware/s5p6818-gpio.o
LOAD .obj/source/hardware/s5p6818-irq.o
LOAD .obj/source/hardware/s5p6818-pwm.o
LOAD .obj/source/hardware/s5p6818-rstcon.o
LOAD .obj/source/hardware/s5p6818-serial-stdio.o
LOAD .obj/source/hardware/s5p6818-serial.o
LOAD .obj/source/hardware/s5p6818-tick-delay.o
LOAD .obj/source/hardware/s5p6818-tick.o
LOAD .obj/source/hardware/s5p6818-timer.o
LOAD .obj/source/hardware/clk/clk-divider.o
LOAD .obj/source/hardware/clk/clk-fixed-factor.o
LOAD .obj/source/hardware/clk/clk-fixed.o
LOAD .obj/source/hardware/clk/clk-gate.o
LOAD .obj/source/hardware/clk/clk-link.o
LOAD .obj/source/hardware/clk/clk-mux.o
LOAD .obj/source/hardware/clk/clk-pll.o
LOAD .obj/source/hardware/clk/clk.o
LOAD .obj/source/hardware/gpio/gpio.o
LOAD .obj/source/hardware/interrupt/interrupt.o
LOAD .obj/source/hardware/pwm/pwm.o
LOAD .obj/source/arm/cp15.o
LOAD .obj/source/library/ctype/ctype.o
LOAD .obj/source/library/ctype/isalnum.o
LOAD .obj/source/library/ctype/isalpha.o
LOAD .obj/source/library/ctype/isascii.o
LOAD .obj/source/library/ctype/isblank.o
LOAD .obj/source/library/ctype/iscntrl.o
LOAD .obj/source/library/ctype/isdigit.o
LOAD .obj/source/library/ctype/isgraph.o
LOAD .obj/source/library/ctype/islower.o
LOAD .obj/source/library/ctype/isprint.o
LOAD .obj/source/library/ctype/ispunct.o
LOAD .obj/source/library/ctype/isspace.o
LOAD .obj/source/library/ctype/isupper.o
LOAD .obj/source/library/ctype/isxdigit.o
LOAD .obj/source/library/ctype/toascii.o
LOAD .obj/source/library/ctype/tolower.o
LOAD .obj/source/library/ctype/toupper.o
LOAD .obj/source/library/errno/errno.o
LOAD .obj/source/library/errno/strerror.o
LOAD .obj/source/library/exit/abort.o
LOAD .obj/source/library/exit/assert.o
LOAD .obj/source/library/exit/exit.o
LOAD .obj/source/library/malloc/malloc.o
LOAD .obj/source/library/stdlib/abs.o
LOAD .obj/source/library/stdlib/atof.o
LOAD .obj/source/library/stdlib/atoi.o
LOAD .obj/source/library/stdlib/atol.o
LOAD .obj/source/library/stdlib/atoll.o
LOAD .obj/source/library/stdlib/bsearch.o
LOAD .obj/source/library/stdlib/div.o
LOAD .obj/source/library/stdlib/labs.o
LOAD .obj/source/library/stdlib/ldiv.o
LOAD .obj/source/library/stdlib/llabs.o
LOAD .obj/source/library/stdlib/lldiv.o
LOAD .obj/source/library/stdlib/qsort.o
LOAD .obj/source/library/stdlib/rand.o
LOAD .obj/source/library/stdlib/strntoimax.o
LOAD .obj/source/library/stdlib/strntoumax.o
LOAD .obj/source/library/stdlib/strtod.o
LOAD .obj/source/library/stdlib/strtoimax.o
LOAD .obj/source/library/stdlib/strtol.o
LOAD .obj/source/library/stdlib/strtoll.o
LOAD .obj/source/library/stdlib/strtoul.o
LOAD .obj/source/library/stdlib/strtoull.o
LOAD .obj/source/library/stdlib/strtoumax.o
LOAD .obj/source/library/string/memchr.o
LOAD .obj/source/library/string/memcmp.o
LOAD .obj/source/library/string/memcpy.o
LOAD .obj/source/library/string/memmove.o
LOAD .obj/source/library/string/memscan.o
LOAD .obj/source/library/string/memset.o
LOAD .obj/source/library/string/strcasecmp.o
LOAD .obj/source/library/string/strcat.o
LOAD .obj/source/library/string/strchr.o
LOAD .obj/source/library/string/strcmp.o
LOAD .obj/source/library/string/strcoll.o
LOAD .obj/source/library/string/strcpy.o
LOAD .obj/source/library/string/strcspn.o
LOAD .obj/source/library/string/strdup.o
LOAD .obj/source/library/string/strlcat.o
LOAD .obj/source/library/string/strlcpy.o
LOAD .obj/source/library/string/strlen.o
LOAD .obj/source/library/string/strncasecmp.o
LOAD .obj/source/library/string/strncat.o
LOAD .obj/source/library/string/strnchr.o
LOAD .obj/source/library/string/strncmp.o
LOAD .obj/source/library/string/strncpy.o
LOAD .obj/source/library/string/strnicmp.o
LOAD .obj/source/library/string/strnlen.o
LOAD .obj/source/library/string/strnstr.o
LOAD .obj/source/library/string/strpbrk.o
LOAD .obj/source/library/string/strrchr.o
LOAD .obj/source/library/string/strsep.o
LOAD .obj/source/library/string/strspn.o
LOAD .obj/source/library/string/strstr.o
LOAD .obj/source/library/stdio/snprintf.o
LOAD .obj/source/library/stdio/sprintf.o
LOAD .obj/source/library/stdio/sscanf.o
LOAD .obj/source/library/stdio/vsnprintf.o
LOAD .obj/source/library/stdio/vsscanf.o
LOAD .obj/source/library/math/acos.o
LOAD .obj/source/library/math/acosf.o
LOAD .obj/source/library/math/asin.o
LOAD .obj/source/library/math/asinf.o
LOAD .obj/source/library/math/atan.o
LOAD .obj/source/library/math/atan2.o
LOAD .obj/source/library/math/atan2f.o
LOAD .obj/source/library/math/atanf.o
LOAD .obj/source/library/math/ceil.o
LOAD .obj/source/library/math/ceilf.o
LOAD .obj/source/library/math/copysign.o
LOAD .obj/source/library/math/copysignf.o
LOAD .obj/source/library/math/cos.o
LOAD .obj/source/library/math/cosf.o
LOAD .obj/source/library/math/cosh.o
LOAD .obj/source/library/math/coshf.o
LOAD .obj/source/library/math/e_rem_pio2.o
LOAD .obj/source/library/math/e_rem_pio2f.o
LOAD .obj/source/library/math/exp.o
LOAD .obj/source/library/math/expf.o
LOAD .obj/source/library/math/expm1.o
LOAD .obj/source/library/math/expm1f.o
LOAD .obj/source/library/math/fabs.o
LOAD .obj/source/library/math/fabsf.o
LOAD .obj/source/library/math/floor.o
LOAD .obj/source/library/math/floorf.o
LOAD .obj/source/library/math/fmod.o
LOAD .obj/source/library/math/fmodf.o
LOAD .obj/source/library/math/frexp.o
LOAD .obj/source/library/math/frexpf.o
LOAD .obj/source/library/math/hypot.o
LOAD .obj/source/library/math/hypotf.o
LOAD .obj/source/library/math/k_cos.o
LOAD .obj/source/library/math/k_cosf.o
LOAD .obj/source/library/math/k_rem_pio2.o
LOAD .obj/source/library/math/k_rem_pio2f.o
LOAD .obj/source/library/math/k_sin.o
LOAD .obj/source/library/math/k_sinf.o
LOAD .obj/source/library/math/k_tan.o
LOAD .obj/source/library/math/k_tanf.o
LOAD .obj/source/library/math/log.o
LOAD .obj/source/library/math/log10.o
LOAD .obj/source/library/math/log10f.o
LOAD .obj/source/library/math/logf.o
LOAD .obj/source/library/math/modf.o
LOAD .obj/source/library/math/modff.o
LOAD .obj/source/library/math/pow.o
LOAD .obj/source/library/math/powf.o
LOAD .obj/source/library/math/scalbn.o
LOAD .obj/source/library/math/scalbnf.o
LOAD .obj/source/library/math/sin.o
LOAD .obj/source/library/math/sinf.o
LOAD .obj/source/library/math/sinh.o
LOAD .obj/source/library/math/sinhf.o
LOAD .obj/source/library/math/sqrt.o
LOAD .obj/source/library/math/sqrtf.o
LOAD .obj/source/library/math/tan.o
LOAD .obj/source/library/math/tanf.o
LOAD .obj/source/library/math/tanh.o
LOAD .obj/source/library/math/tanhf.o
LOAD .obj/source/graphic/color.o
LOAD .obj/source/graphic/maps.o
LOAD .obj/source/graphic/pixel.o
LOAD .obj/source/graphic/rect.o
LOAD .obj/source/graphic/surface.o
LOAD .obj/source/graphic/maps/software/sw_blit.o
LOAD .obj/source/graphic/maps/software/sw_blit_alpha.o
LOAD .obj/source/graphic/maps/software/sw_blit_replace.o
LOAD .obj/source/graphic/maps/software/sw_fill.o
LOAD .obj/source/graphic/maps/software/sw_hline.o
LOAD .obj/source/graphic/maps/software/sw_point.o
LOAD .obj/source/graphic/maps/software/sw_rotate.o
LOAD .obj/source/graphic/maps/software/sw_scale.o
LOAD .obj/source/graphic/maps/software/sw_utils.o
LOAD .obj/source/graphic/maps/software/sw_vline.o
LOAD c:/yagarto-20121222/bin/../lib/gcc/arm-none-eabi/4.7.2\libgcc.a
                0x00040000                STACK_UND_SIZE = 0x40000
                0x00040000                STACK_ABT_SIZE = 0x40000
                0x00040000                STACK_IRQ_SIZE = 0x40000
                0x00040000                STACK_FIQ_SIZE = 0x40000
                0x00100000                STACK_SRV_SIZE = 0x100000

.text           0x43c00000    0x23f14
                0x43c00000                PROVIDE (__image_start, .)
                0x43c00000                PROVIDE (__text_start, .)
 .obj/source/startup/start.o(.text)
 .text          0x43c00000      0x340 .obj/source/startup/start.o
                0x43c00000                _start
                0x43c00280                irq
 *(.text*)
 .text          0x43c00340       0x30 .obj/source/arm/memcmp.o
                0x43c00340                memcmp
 .text          0x43c00370      0x490 .obj/source/arm/memcpy.o
                0x43c00370                memcpy
 .text          0x43c00800      0x490 .obj/source/arm/memmove.o
                0x43c00800                memmove
 .text          0x43c00c90       0xb0 .obj/source/arm/memset.o
                0x43c00c90                memset
 .text          0x43c00d40       0x20 .obj/source/arm/strcmp.o
                0x43c00d40                strcmp
 .text          0x43c00d60       0x40 .obj/source/arm/strncmp.o
                0x43c00d60                strncmp
 .text          0x43c00da0        0x0 .obj/source/main.o
 .text.startup  0x43c00da0       0x54 .obj/source/main.o
                0x43c00da0                main
 .text          0x43c00df4      0xdac .obj/source/tester-key-with-led.o
                0x43c00df4                led_all_off
                0x43c00e2c                led_all_on
                0x43c00e64                init_stat
                0x43c00efc                tester_reset
                0x43c0100c                system_stage
                0x43c010c4                show_group_number
                0x43c011ec                show_first_name_Lea
                0x43c01314                show_first_name_req
                0x43c0143c                show_first_name_log
                0x43c01564                show_first_name_opt
                0x43c0168c                show_first_name_sho
                0x43c017b4                interrupt_group_order
                0x43c0188c                interrupt_stage_change
                0x43c01af8                key_status_change
                0x43c01b1c                tester_key_led_beep
 .text          0x43c01ba0       0x6c .obj/source/hardware/hw-beep.o
                0x43c01ba0                beep_initial
                0x43c01bd8                beep_set_status
 .text          0x43c01c0c      0x148 .obj/source/hardware/hw-key.o
                0x43c01c0c                key_initial
                0x43c01c54                get_key_status
                0x43c01cfc                get_key_event
 .text          0x43c01d54      0x154 .obj/source/hardware/hw-led.o
                0x43c01d54                led_initial
                0x43c01e1c                led_set_status
 .text          0x43c01ea8      0x1b0 .obj/source/hardware/s5p6818-alv.o
                0x43c02040                s5p6818_gpiochip_alv_init
                0x43c0204c                s5p6818_gpiochip_alv_exit
 .text          0x43c02058      0x4f4 .obj/source/hardware/s5p6818-clk.o
                0x43c0215c                s5p6818_clk_init
                0x43c023d0                s5p6818_clk_exit
 .text          0x43c0254c      0x838 .obj/source/hardware/s5p6818-fb.o
                0x43c02644                s5p6818_fb_initial
                0x43c02cf0                s5p6818_screen_surface
                0x43c02cfc                s5p6818_screen_swap
                0x43c02d20                s5p6818_screen_flush
                0x43c02d5c                s5p6818_screen_backlight
 .text          0x43c02d84      0x83c .obj/source/hardware/s5p6818-gpio.o
                0x43c031f8                s5p6818_gpiochip_init
                0x43c03524                s5p6818_gpiochip_exit
 .text          0x43c035c0      0xb68 .obj/source/hardware/s5p6818-irq.o
                0x43c03e7c                do_irq
                0x43c03eb4                s5p6818_irq_init
                0x43c040f0                s5p6818_irq_exit
 .text          0x43c04128      0x51c .obj/source/hardware/s5p6818-pwm.o
                0x43c044b0                s5p6818_pwm_init
                0x43c045c4                s5p6818_pwm_exit
 .text          0x43c04644      0x130 .obj/source/hardware/s5p6818-rstcon.o
                0x43c04654                s5p6818_ip_reset
 .text          0x43c04774       0x98 .obj/source/hardware/s5p6818-serial-stdio.o
                0x43c04774                serial_printf
 *fill*         0x43c0480c        0x4 
 .text          0x43c04810      0x780 .obj/source/hardware/s5p6818-serial.o
                0x43c04810                s5p6818_serial_setup
                0x43c04c8c                s5p6818_serial_initial
                0x43c04e20                s5p6818_serial_read
                0x43c04ea0                s5p6818_serial_write
                0x43c04f10                s5p6818_serial_write_string
 .text          0x43c04f90      0x1bc .obj/source/hardware/s5p6818-tick-delay.o
                0x43c04f90                __delay
                0x43c04fc4                udelay
                0x43c05014                mdelay
                0x43c05060                s5p6818_tick_delay_initial
 .text          0x43c0514c      0x104 .obj/source/hardware/s5p6818-tick.o
                0x43c05168                s5p6818_tick_initial
                0x43c051f4                get_system_hz
                0x43c05204                clock_gettime
 .text          0x43c05250      0x2e0 .obj/source/hardware/s5p6818-timer.o
                0x43c05250                s5p6818_timer_reset
                0x43c0525c                s5p6818_timer_start
                0x43c05320                s5p6818_timer_stop
                0x43c053a8                s5p6818_timer_calc_tin
                0x43c054b0                s5p6818_timer_count
                0x43c054e4                s5p6818_timer_read
                0x43c0550c                s5p6818_timer_irq_clear
 .text          0x43c05530      0x1bc .obj/source/hardware/clk/clk-divider.o
                0x43c055e4                clk_divider_register
                0x43c056a4                clk_divider_unregister
 .text          0x43c056ec      0x174 .obj/source/hardware/clk/clk-fixed-factor.o
                0x43c05740                clk_fixed_factor_register
                0x43c05818                clk_fixed_factor_unregister
 .text          0x43c05860      0x130 .obj/source/hardware/clk/clk-fixed.o
                0x43c0588c                clk_fixed_register
                0x43c05948                clk_fixed_unregister
 .text          0x43c05990      0x1b4 .obj/source/hardware/clk/clk-gate.o
                0x43c05a3c                clk_gate_register
                0x43c05afc                clk_gate_unregister
 .text          0x43c05b44      0x134 .obj/source/hardware/clk/clk-link.o
                0x43c05b70                clk_link_register
                0x43c05c30                clk_link_unregister
 .text          0x43c05c78      0x214 .obj/source/hardware/clk/clk-mux.o
                0x43c05d84                clk_mux_register
                0x43c05e44                clk_mux_unregister
 .text          0x43c05e8c      0x188 .obj/source/hardware/clk/clk-pll.o
                0x43c05f0c                clk_pll_register
                0x43c05fcc                clk_pll_unregister
 .text          0x43c06014      0xb78 .obj/source/hardware/clk/clk.o
                0x43c06014                clk_search
                0x43c0608c                clk_register
                0x43c06138                clk_unregister
                0x43c061d4                clk_set_parent
                0x43c062c8                clk_get_parent
                0x43c06344                clk_enable
                0x43c06604                clk_disable
                0x43c066b0                clk_status
                0x43c06760                clk_get_rate
                0x43c06a50                clk_set_rate
 .text          0x43c06b8c      0x950 .obj/source/hardware/gpio/gpio.o
                0x43c06b8c                search_gpiochip
                0x43c06c04                register_gpiochip
                0x43c06cb0                unregister_gpiochip
                0x43c06d4c                gpio_is_valid
                0x43c06db8                gpio_set_cfg
                0x43c06e38                gpio_get_cfg
                0x43c06eb8                gpio_set_pull
                0x43c06f38                gpio_get_pull
                0x43c06fb8                gpio_set_drv
                0x43c07038                gpio_get_drv
                0x43c070b8                gpio_set_rate
                0x43c07138                gpio_get_rate
                0x43c071b8                gpio_set_direction
                0x43c07238                gpio_get_direction
                0x43c072b8                gpio_set_value
                0x43c07338                gpio_get_value
                0x43c073b8                gpio_direction_output
                0x43c0745c                gpio_direction_input
 .text          0x43c074dc      0x454 .obj/source/hardware/interrupt/interrupt.o
                0x43c074e0                irq_register
                0x43c075cc                irq_unregister
                0x43c076ac                request_irq
                0x43c07788                free_irq
                0x43c07840                enable_irq
                0x43c078b8                disable_irq
 .text          0x43c07930      0x2b4 .obj/source/hardware/pwm/pwm.o
                0x43c07930                search_pwm
                0x43c079a8                register_pwm
                0x43c07a68                unregister_pwm
                0x43c07b04                pwm_config
                0x43c07b7c                pwm_enable
                0x43c07bb0                pwm_disable
 .text          0x43c07be4      0x1b8 .obj/source/arm/cp15.o
                0x43c07be4                irq_enable
                0x43c07bf4                irq_disable
                0x43c07c04                fiq_enable
                0x43c07c14                fiq_disable
                0x43c07c24                icache_enable
                0x43c07c38                icache_disable
                0x43c07c4c                icache_status
                0x43c07c58                dcache_enable
                0x43c07c6c                dcache_disable
                0x43c07c80                dcache_status
                0x43c07c8c                wbuffer_enable
                0x43c07ca0                wbuffer_disable
                0x43c07cb4                wbuffer_status
                0x43c07cc0                mmu_enable
                0x43c07cd4                mmu_disable
                0x43c07ce8                mmu_status
                0x43c07cf4                vic_enable
                0x43c07d08                vic_disable
                0x43c07d1c                vic_status
                0x43c07d28                branch_enable
                0x43c07d3c                branch_disable
                0x43c07d50                branch_status
                0x43c07d5c                ttb_set
                0x43c07d64                ttb_get
                0x43c07d6c                domain_set
                0x43c07d74                domain_get
                0x43c07d7c                tlb_invalidate
                0x43c07d90                smp_processor_id
 .text          0x43c07d9c        0x0 .obj/source/library/ctype/ctype.o
 .text          0x43c07d9c       0x20 .obj/source/library/ctype/isalnum.o
                0x43c07d9c                isalnum
 .text          0x43c07dbc       0x20 .obj/source/library/ctype/isalpha.o
                0x43c07dbc                isalpha
 .text          0x43c07ddc       0x10 .obj/source/library/ctype/isascii.o
                0x43c07ddc                isascii
 .text          0x43c07dec       0x14 .obj/source/library/ctype/isblank.o
                0x43c07dec                isblank
 .text          0x43c07e00       0x24 .obj/source/library/ctype/iscntrl.o
                0x43c07e00                iscntrl
 .text          0x43c07e24       0x24 .obj/source/library/ctype/isdigit.o
                0x43c07e24                isdigit
 .text          0x43c07e48       0x20 .obj/source/library/ctype/isgraph.o
                0x43c07e48                isgraph
 .text          0x43c07e68       0x24 .obj/source/library/ctype/islower.o
                0x43c07e68                islower
 .text          0x43c07e8c       0x20 .obj/source/library/ctype/isprint.o
                0x43c07e8c                isprint
 .text          0x43c07eac       0x24 .obj/source/library/ctype/ispunct.o
                0x43c07eac                ispunct
 .text          0x43c07ed0       0x24 .obj/source/library/ctype/isspace.o
                0x43c07ed0                isspace
 .text          0x43c07ef4       0x20 .obj/source/library/ctype/isupper.o
                0x43c07ef4                isupper
 .text          0x43c07f14       0x20 .obj/source/library/ctype/isxdigit.o
                0x43c07f14                isxdigit
 .text          0x43c07f34        0x8 .obj/source/library/ctype/toascii.o
                0x43c07f34                toascii
 .text          0x43c07f3c       0x1c .obj/source/library/ctype/tolower.o
                0x43c07f3c                tolower
 .text          0x43c07f58       0x1c .obj/source/library/ctype/toupper.o
                0x43c07f58                toupper
 .text          0x43c07f74        0xc .obj/source/library/errno/errno.o
                0x43c07f74                __runtime_errno_location
 .text          0x43c07f80       0x20 .obj/source/library/errno/strerror.o
                0x43c07f80                strerror
 .text          0x43c07fa0        0x4 .obj/source/library/exit/abort.o
                0x43c07fa0                abort
 .text          0x43c07fa4        0x4 .obj/source/library/exit/assert.o
                0x43c07fa4                __assert_fail
 .text          0x43c07fa8        0x4 .obj/source/library/exit/exit.o
                0x43c07fa8                exit
 .text          0x43c07fac      0xec4 .obj/source/library/malloc/malloc.o
                0x43c08634                memory_pool_create
                0x43c0881c                memory_pool_destroy
                0x43c08820                memory_pool_stat
                0x43c0889c                malloc_init
                0x43c089b4                malloc_exit
                0x43c089b8                malloc
                0x43c089cc                memalign
                0x43c08c0c                realloc
                0x43c08e24                calloc
                0x43c08e5c                free
 .text          0x43c08e70        0xc .obj/source/library/stdlib/abs.o
                0x43c08e70                abs
 .text          0x43c08e7c        0x8 .obj/source/library/stdlib/atof.o
                0x43c08e7c                atof
 .text          0x43c08e84        0xc .obj/source/library/stdlib/atoi.o
                0x43c08e84                atoi
 .text          0x43c08e90        0xc .obj/source/library/stdlib/atol.o
                0x43c08e90                atol
 .text          0x43c08e9c        0xc .obj/source/library/stdlib/atoll.o
                0x43c08e9c                atoll
 .text          0x43c08ea8       0x70 .obj/source/library/stdlib/bsearch.o
                0x43c08ea8                bsearch
 .text          0x43c08f18       0x38 .obj/source/library/stdlib/div.o
                0x43c08f18                div
 .text          0x43c08f50        0xc .obj/source/library/stdlib/labs.o
                0x43c08f50                labs
 .text          0x43c08f5c       0x38 .obj/source/library/stdlib/ldiv.o
                0x43c08f5c                ldiv
 .text          0x43c08f94       0x2c .obj/source/library/stdlib/llabs.o
                0x43c08f94                llabs
 .text          0x43c08fc0       0x4c .obj/source/library/stdlib/lldiv.o
                0x43c08fc0                lldiv
 .text          0x43c0900c     0x1240 .obj/source/library/stdlib/qsort.o
                0x43c0900c                qsort
 *fill*         0x43c0a24c        0x4 
 .text          0x43c0a250       0xb0 .obj/source/library/stdlib/rand.o
                0x43c0a250                rand
                0x43c0a2e0                srand
 .text          0x43c0a300        0x4 .obj/source/library/stdlib/strntoimax.o
                0x43c0a300                strntoimax
 .text          0x43c0a304      0x1cc .obj/source/library/stdlib/strntoumax.o
                0x43c0a304                strntoumax
 .text          0x43c0a4d0      0x240 .obj/source/library/stdlib/strtod.o
                0x43c0a4d0                strtod
 .text          0x43c0a710      0x440 .obj/source/library/stdlib/strtoimax.o
                0x43c0a710                strtoimax
 .text          0x43c0ab50      0x24c .obj/source/library/stdlib/strtol.o
                0x43c0ab50                strtol
 *fill*         0x43c0ad9c        0x4 
 .text          0x43c0ada0      0x440 .obj/source/library/stdlib/strtoll.o
                0x43c0ada0                strtoll
 .text          0x43c0b1e0      0x1d8 .obj/source/library/stdlib/strtoul.o
                0x43c0b1e0                strtoul
 .text          0x43c0b3b8      0x2c0 .obj/source/library/stdlib/strtoull.o
                0x43c0b3b8                strtoull
 .text          0x43c0b678      0x29c .obj/source/library/stdlib/strtoumax.o
                0x43c0b678                strtoumax
 .text          0x43c0b914       0x30 .obj/source/library/string/memchr.o
                0x43c0b914                memchr
 .text          0x43c0b944       0x54 .obj/source/library/string/memcmp.o
 .text          0x43c0b998       0xa8 .obj/source/library/string/memcpy.o
 .text          0x43c0ba40       0xdc .obj/source/library/string/memmove.o
 .text          0x43c0bb1c       0x40 .obj/source/library/string/memscan.o
                0x43c0bb1c                memscan
 .text          0x43c0bb5c      0x234 .obj/source/library/string/memset.o
 .text          0x43c0bd90       0x40 .obj/source/library/string/strcasecmp.o
                0x43c0bd90                strcasecmp
 .text          0x43c0bdd0       0x44 .obj/source/library/string/strcat.o
                0x43c0bdd0                strcat
 .text          0x43c0be14       0x48 .obj/source/library/string/strchr.o
                0x43c0be14                strchr
 .text          0x43c0be5c       0x20 .obj/source/library/string/strcmp.o
 .text          0x43c0be7c        0x4 .obj/source/library/string/strcoll.o
                0x43c0be7c                strcoll
 .text          0x43c0be80       0x1c .obj/source/library/string/strcpy.o
                0x43c0be80                strcpy
 .text          0x43c0be9c       0x68 .obj/source/library/string/strcspn.o
                0x43c0be9c                strcspn
 .text          0x43c0bf04       0x30 .obj/source/library/string/strdup.o
                0x43c0bf04                strdup
 .text          0x43c0bf34       0x58 .obj/source/library/string/strlcat.o
                0x43c0bf34                strlcat
 .text          0x43c0bf8c       0x50 .obj/source/library/string/strlcpy.o
                0x43c0bf8c                strlcpy
 .text          0x43c0bfdc       0x34 .obj/source/library/string/strlen.o
                0x43c0bfdc                strlen
 .text          0x43c0c010       0x54 .obj/source/library/string/strncasecmp.o
                0x43c0c010                strncasecmp
 .text          0x43c0c064       0x60 .obj/source/library/string/strncat.o
                0x43c0c064                strncat
 .text          0x43c0c0c4       0x80 .obj/source/library/string/strnchr.o
                0x43c0c0c4                strnchr
 .text          0x43c0c144       0x78 .obj/source/library/string/strncmp.o
 .text          0x43c0c1bc       0x38 .obj/source/library/string/strncpy.o
                0x43c0c1bc                strncpy
 .text          0x43c0c1f4       0x7c .obj/source/library/string/strnicmp.o
                0x43c0c1f4                strnicmp
 .text          0x43c0c270       0x64 .obj/source/library/string/strnlen.o
                0x43c0c270                strnlen
 .text          0x43c0c2d4       0x68 .obj/source/library/string/strnstr.o
                0x43c0c2d4                strnstr
 .text          0x43c0c33c       0x60 .obj/source/library/string/strpbrk.o
                0x43c0c33c                strpbrk
 .text          0x43c0c39c       0x3c .obj/source/library/string/strrchr.o
                0x43c0c39c                strrchr
 .text          0x43c0c3d8       0x34 .obj/source/library/string/strsep.o
                0x43c0c3d8                strsep
 .text          0x43c0c40c       0x70 .obj/source/library/string/strspn.o
                0x43c0c40c                strspn
 .text          0x43c0c47c       0x70 .obj/source/library/string/strstr.o
                0x43c0c47c                strstr
 .text          0x43c0c4ec       0x30 .obj/source/library/stdio/snprintf.o
                0x43c0c4ec                snprintf
 .text          0x43c0c51c       0x34 .obj/source/library/stdio/sprintf.o
                0x43c0c51c                sprintf
 .text          0x43c0c550       0x30 .obj/source/library/stdio/sscanf.o
                0x43c0c550                sscanf
 .text          0x43c0c580     0x1ee8 .obj/source/library/stdio/vsnprintf.o
                0x43c0d684                vsnprintf
 .text          0x43c0e468      0xb74 .obj/source/library/stdio/vsscanf.o
                0x43c0e468                vsscanf
 *fill*         0x43c0efdc        0x4 
 .text          0x43c0efe0      0x290 .obj/source/library/math/acos.o
                0x43c0efe0                acos
 .text          0x43c0f270      0x238 .obj/source/library/math/acosf.o
                0x43c0f270                acosf
 .text          0x43c0f4a8      0x240 .obj/source/library/math/asin.o
                0x43c0f4a8                asin
 .text          0x43c0f6e8      0x1ec .obj/source/library/math/asinf.o
                0x43c0f6e8                asinf
 *fill*         0x43c0f8d4        0x4 
 .text          0x43c0f8d8      0x268 .obj/source/library/math/atan.o
                0x43c0f8d8                atan
 .text          0x43c0fb40      0x230 .obj/source/library/math/atan2.o
                0x43c0fb40                atan2
 .text          0x43c0fd70      0x1d4 .obj/source/library/math/atan2f.o
                0x43c0fd70                atan2f
 .text          0x43c0ff44      0x1f0 .obj/source/library/math/atanf.o
                0x43c0ff44                atanf
 *fill*         0x43c10134        0x4 
 .text          0x43c10138      0x158 .obj/source/library/math/ceil.o
                0x43c10138                ceil
 .text          0x43c10290       0xa4 .obj/source/library/math/ceilf.o
                0x43c10290                ceilf
 .text          0x43c10334       0x10 .obj/source/library/math/copysign.o
                0x43c10334                copysign
 .text          0x43c10344       0x10 .obj/source/library/math/copysignf.o
                0x43c10344                copysignf
 .text          0x43c10354       0xf4 .obj/source/library/math/cos.o
                0x43c10354                cos
 .text          0x43c10448      0x208 .obj/source/library/math/cosf.o
                0x43c10448                cosf
 .text          0x43c10650      0x138 .obj/source/library/math/cosh.o
                0x43c10650                cosh
 .text          0x43c10788      0x114 .obj/source/library/math/coshf.o
                0x43c10788                coshf
 *fill*         0x43c1089c        0x4 
 .text          0x43c108a0      0x330 .obj/source/library/math/e_rem_pio2.o
                0x43c108a0                __ieee754_rem_pio2
 .text          0x43c10bd0      0x168 .obj/source/library/math/e_rem_pio2f.o
                0x43c10bd0                __ieee754_rem_pio2f
 .text          0x43c10d38      0x270 .obj/source/library/math/exp.o
                0x43c10d38                exp
 .text          0x43c10fa8      0x204 .obj/source/library/math/expf.o
                0x43c10fa8                expf
 *fill*         0x43c111ac        0x4 
 .text          0x43c111b0      0x340 .obj/source/library/math/expm1.o
                0x43c111b0                expm1
 .text          0x43c114f0      0x2c0 .obj/source/library/math/expm1f.o
                0x43c114f0                expm1f
 .text          0x43c117b0        0x8 .obj/source/library/math/fabs.o
                0x43c117b0                fabs
 .text          0x43c117b8        0x8 .obj/source/library/math/fabsf.o
                0x43c117b8                fabsf
 .text          0x43c117c0      0x160 .obj/source/library/math/floor.o
                0x43c117c0                floor
 .text          0x43c11920       0xb4 .obj/source/library/math/floorf.o
                0x43c11920                floorf
 .text          0x43c119d4      0x360 .obj/source/library/math/fmod.o
                0x43c119d4                fmod
 .text          0x43c11d34      0x18c .obj/source/library/math/fmodf.o
                0x43c11d34                fmodf
 .text          0x43c11ec0       0x88 .obj/source/library/math/frexp.o
                0x43c11ec0                frexp
 .text          0x43c11f48       0x84 .obj/source/library/math/frexpf.o
                0x43c11f48                frexpf
 .text          0x43c11fcc      0x1e4 .obj/source/library/math/hypot.o
                0x43c11fcc                hypot
 .text          0x43c121b0      0x170 .obj/source/library/math/hypotf.o
                0x43c121b0                hypotf
 .text          0x43c12320       0x90 .obj/source/library/math/k_cos.o
                0x43c12320                __kernel_cos
 .text          0x43c123b0       0x58 .obj/source/library/math/k_cosf.o
                0x43c123b0                __kernel_cosdf
 .text          0x43c12408      0x938 .obj/source/library/math/k_rem_pio2.o
                0x43c12408                __kernel_rem_pio2
 .text          0x43c12d40      0xee8 .obj/source/library/math/k_rem_pio2f.o
                0x43c12d40                __kernel_rem_pio2f
 .text          0x43c13c28       0xa8 .obj/source/library/math/k_sin.o
                0x43c13c28                __kernel_sin
 .text          0x43c13cd0       0x58 .obj/source/library/math/k_sinf.o
                0x43c13cd0                __kernel_sindf
 .text          0x43c13d28      0x1c0 .obj/source/library/math/k_tan.o
                0x43c13d28                __kernel_tan
 .text          0x43c13ee8       0x88 .obj/source/library/math/k_tanf.o
                0x43c13ee8                __kernel_tandf
 .text          0x43c13f70      0x250 .obj/source/library/math/log.o
                0x43c13f70                log
 .text          0x43c141c0       0xf0 .obj/source/library/math/log10.o
                0x43c141c0                log10
 .text          0x43c142b0       0xd0 .obj/source/library/math/log10f.o
                0x43c142b0                log10f
 .text          0x43c14380      0x1f8 .obj/source/library/math/logf.o
                0x43c14380                logf
 .text          0x43c14578       0xf4 .obj/source/library/math/modf.o
                0x43c14578                modf
 .text          0x43c1466c       0x64 .obj/source/library/math/modff.o
                0x43c1466c                modff
 .text          0x43c146d0      0x770 .obj/source/library/math/pow.o
                0x43c146d0                pow
 .text          0x43c14e40      0x5b4 .obj/source/library/math/powf.o
                0x43c14e40                powf
 *fill*         0x43c153f4        0x4 
 .text          0x43c153f8      0x168 .obj/source/library/math/scalbn.o
                0x43c153f8                scalbn
                0x43c15558                ldexp
 .text          0x43c15560      0x134 .obj/source/library/math/scalbnf.o
                0x43c15560                scalbnf
                0x43c15690                ldexpf
 .text          0x43c15694      0x12c .obj/source/library/math/sin.o
                0x43c15694                sin
 .text          0x43c157c0      0x218 .obj/source/library/math/sinf.o
                0x43c157c0                sinf
 .text          0x43c159d8      0x178 .obj/source/library/math/sinh.o
                0x43c159d8                sinh
 .text          0x43c15b50      0x134 .obj/source/library/math/sinhf.o
                0x43c15b50                sinhf
 *fill*         0x43c15c84        0x4 
 .text          0x43c15c88      0x208 .obj/source/library/math/sqrt.o
                0x43c15c88                sqrt
 .text          0x43c15e90      0x128 .obj/source/library/math/sqrtf.o
                0x43c15e90                sqrtf
 .text          0x43c15fb8       0xb8 .obj/source/library/math/tan.o
                0x43c15fb8                tan
 .text          0x43c16070      0x1b8 .obj/source/library/math/tanf.o
                0x43c16070                tanf
 .text          0x43c16228       0xd8 .obj/source/library/math/tanh.o
                0x43c16228                tanh
 .text          0x43c16300       0xdc .obj/source/library/math/tanhf.o
                0x43c16300                tanhf
 .text          0x43c163dc      0x3a0 .obj/source/graphic/color.o
                0x43c163dc                get_named_color
                0x43c1642c                color_init_rgb
                0x43c16444                color_init_rgba
                0x43c1645c                color_init_colstr
 .text          0x43c1677c       0xac .obj/source/graphic/maps.o
                0x43c1677c                surface_set_maps
 .text          0x43c16828      0x7c0 .obj/source/graphic/pixel.o
                0x43c16828                get_pixel_format
                0x43c16bcc                set_pixel_info
                0x43c16eb0                map_pixel_color
                0x43c16f2c                unmap_pixel_color
 .text          0x43c16fe8      0xc34 .obj/source/graphic/rect.o
                0x43c16fe8                rect_is_empty
                0x43c17010                rect_is_equal
                0x43c17060                rect_has_intersection
                0x43c170dc                rect_intersect
                0x43c17170                rect_union
                0x43c171ec                rect_enclose_points
                0x43c1740c                rect_intersect_with_line
                0x43c179a8                rect_align
 .text          0x43c17c1c      0x320 .obj/source/graphic/surface.o
                0x43c17c1c                surface_alloc
                0x43c17d44                surface_alloc_from_gimage
                0x43c17d88                surface_free
                0x43c17dc0                surface_set_clip_rect
                0x43c17e30                surface_get_clip_rect
                0x43c17e5c                surface_map_color
                0x43c17e74                surface_unmap_color
                0x43c17e84                surface_fill
                0x43c17eac                surface_blit
                0x43c17eec                surface_scale
                0x43c17f14                surface_rotate
 .text          0x43c17f3c      0x19c .obj/source/graphic/maps/software/sw_blit.o
                0x43c17f3c                map_software_blit
 .text          0x43c180d8      0x1d0 .obj/source/graphic/maps/software/sw_blit_alpha.o
                0x43c180d8                sw_blit_alpha
 .text          0x43c182a8     0x5d60 .obj/source/graphic/maps/software/sw_blit_replace.o
                0x43c182a8                sw_blit_replace
 .text          0x43c1e008     0x1690 .obj/source/graphic/maps/software/sw_fill.o
                0x43c1e008                map_software_fill
 .text          0x43c1f698        0x8 .obj/source/graphic/maps/software/sw_hline.o
                0x43c1f698                map_software_hline
 .text          0x43c1f6a0       0xc4 .obj/source/graphic/maps/software/sw_point.o
                0x43c1f6a0                map_software_point
 *fill*         0x43c1f764        0x4 
 .text          0x43c1f768     0x1480 .obj/source/graphic/maps/software/sw_rotate.o
                0x43c1f768                map_software_rotate
 .text          0x43c20be8      0xb0c .obj/source/graphic/maps/software/sw_scale.o
                0x43c20be8                map_software_scale
 .text          0x43c216f4      0x440 .obj/source/graphic/maps/software/sw_utils.o
                0x43c216f4                surface_sw_get_pointer
                0x43c2177c                surface_sw_get_pixel
                0x43c2181c                surface_sw_set_pixel
                0x43c218b8                surface_sw_set_pixel_with_alpha
 .text          0x43c21b34        0x8 .obj/source/graphic/maps/software/sw_vline.o
                0x43c21b34                map_software_vline
 .text          0x43c21b3c      0x114 c:/yagarto-20121222/bin/../lib/gcc/arm-none-eabi/4.7.2\libgcc.a(_udivsi3.o)
                0x43c21b3c                __aeabi_uidiv
                0x43c21b3c                __udivsi3
                0x43c21c30                __aeabi_uidivmod
 .text          0x43c21c50      0x148 c:/yagarto-20121222/bin/../lib/gcc/arm-none-eabi/4.7.2\libgcc.a(_divsi3.o)
                0x43c21c50                __divsi3
                0x43c21c50                __aeabi_idiv
                0x43c21d78                __aeabi_idivmod
 .text          0x43c21d98        0x4 c:/yagarto-20121222/bin/../lib/gcc/arm-none-eabi/4.7.2\libgcc.a(_dvmd_tls.o)
                0x43c21d98                __aeabi_idiv0
                0x43c21d98                __aeabi_ldiv0
 .text          0x43c21d9c       0x44 c:/yagarto-20121222/bin/../lib/gcc/arm-none-eabi/4.7.2\libgcc.a(_aeabi_ldivmod.o)
                0x43c21d9c                __aeabi_ldivmod
 .text          0x43c21de0       0x3c c:/yagarto-20121222/bin/../lib/gcc/arm-none-eabi/4.7.2\libgcc.a(_aeabi_uldivmod.o)
                0x43c21de0                __aeabi_uldivmod
 .text          0x43c21e1c       0x84 c:/yagarto-20121222/bin/../lib/gcc/arm-none-eabi/4.7.2\libgcc.a(bpabi.o)
                0x43c21e1c                __gnu_ldivmod_helper
                0x43c21e60                __gnu_uldivmod_helper
 .text          0x43c21ea0      0x4f8 c:/yagarto-20121222/bin/../lib/gcc/arm-none-eabi/4.7.2\libgcc.a(_divdi3.o)
                0x43c21ea0                __divdi3
 .text          0x43c22398      0x498 c:/yagarto-20121222/bin/../lib/gcc/arm-none-eabi/4.7.2\libgcc.a(_udivdi3.o)
                0x43c22398                __udivdi3
 .text          0x43c22830      0xfb0 c:/yagarto-20121222/bin/../lib/gcc/arm-none-eabi/4.7.2\libgcc.a(unwind-arm.o)
                0x43c22cb8                _Unwind_GetCFA
                0x43c22cc0                __gnu_Unwind_RaiseException
                0x43c22d6c                __gnu_Unwind_ForcedUnwind
                0x43c22d90                __gnu_Unwind_Resume
                0x43c22e08                __gnu_Unwind_Resume_or_Rethrow
                0x43c22e28                _Unwind_Complete
                0x43c22e2c                _Unwind_DeleteException
                0x43c22e50                _Unwind_VRS_Get
                0x43c22ec4                _Unwind_VRS_Set
                0x43c23368                __aeabi_unwind_cpp_pr2
                0x43c23370                __aeabi_unwind_cpp_pr1
                0x43c23378                __aeabi_unwind_cpp_pr0
                0x43c23380                __gnu_Unwind_Backtrace
                0x43c2344c                _Unwind_VRS_Pop
 .text          0x43c237e0      0x1b0 c:/yagarto-20121222/bin/../lib/gcc/arm-none-eabi/4.7.2\libgcc.a(libunwind.o)
                0x43c237e0                __restore_core_regs
                0x43c237e0                restore_core_regs
                0x43c237fc                __gnu_Unwind_Restore_VFP
                0x43c23804                __gnu_Unwind_Save_VFP
                0x43c2380c                __gnu_Unwind_Restore_VFP_D
                0x43c23814                __gnu_Unwind_Save_VFP_D
                0x43c2381c                __gnu_Unwind_Restore_VFP_D_16_to_31
                0x43c23824                __gnu_Unwind_Save_VFP_D_16_to_31
                0x43c2382c                __gnu_Unwind_Restore_WMMXD
                0x43c23870                __gnu_Unwind_Save_WMMXD
                0x43c238b4                __gnu_Unwind_Restore_WMMXC
                0x43c238c8                __gnu_Unwind_Save_WMMXC
                0x43c238dc                ___Unwind_RaiseException
                0x43c238dc                _Unwind_RaiseException
                0x43c23900                _Unwind_Resume
                0x43c23900                ___Unwind_Resume
                0x43c23924                _Unwind_Resume_or_Rethrow
                0x43c23924                ___Unwind_Resume_or_Rethrow
                0x43c23948                _Unwind_ForcedUnwind
                0x43c23948                ___Unwind_ForcedUnwind
                0x43c2396c                ___Unwind_Backtrace
                0x43c2396c                _Unwind_Backtrace
 .text          0x43c23990      0x53c c:/yagarto-20121222/bin/../lib/gcc/arm-none-eabi/4.7.2\libgcc.a(pr-support.o)
                0x43c23a24                __gnu_unwind_execute
                0x43c23e40                __gnu_unwind_frame
                0x43c23e88                _Unwind_GetRegionStart
                0x43c23e9c                _Unwind_GetLanguageSpecificData
                0x43c23ebc                _Unwind_GetDataRelBase
                0x43c23ec4                _Unwind_GetTextRelBase
 .text          0x43c23ecc       0x48 c:/yagarto-20121222/bin/../lib/gcc/arm-none-eabi/4.7.2\libgcc.a(_clzsi2.o)
                0x43c23ecc                __clzsi2
 *(.glue*)
 .glue_7        0x00000000        0x0 linker stubs
 .glue_7t       0x00000000        0x0 linker stubs
 *(.init.text)
 *(.exit.text)
                0x43c23f14                PROVIDE (__text_end, .)

.vfp11_veneer   0x43c23f14        0x0
 .vfp11_veneer  0x00000000        0x0 linker stubs

.v4_bx          0x43c23f14        0x0
 .v4_bx         0x00000000        0x0 linker stubs

.iplt           0x43c23f14        0x0
 .iplt          0x00000000        0x0 .obj/source/startup/start.o

.rodata         0x43c23f18     0x1dc0
                0x43c23f18                PROVIDE (__rodata_start, .)
 *(SORT(.rodata*))
 .rodata        0x43c23f18        0x8 .obj/source/hardware/s5p6818-alv.o
 .rodata        0x43c23f20       0x10 .obj/source/hardware/s5p6818-gpio.o
 .rodata        0x43c23f30       0x70 .obj/source/hardware/s5p6818-serial.o
 .rodata        0x43c23fa0       0x10 .obj/source/hardware/s5p6818-timer.o
 .rodata        0x43c23fb0      0x108 .obj/source/library/ctype/ctype.o
                0x43c23fb0                __const_ctype
 .rodata        0x43c240b8       0x88 .obj/source/library/errno/strerror.o
 .rodata        0x43c24140       0x30 .obj/source/library/stdio/vsnprintf.o
 .rodata        0x43c24170       0x40 .obj/source/library/math/atan.o
 .rodata        0x43c241b0       0x20 .obj/source/library/math/atanf.o
 .rodata        0x43c241d0      0x188 .obj/source/library/math/e_rem_pio2.o
 .rodata        0x43c24358      0x108 .obj/source/library/math/e_rem_pio2f.o
 .rodata        0x43c24460       0x30 .obj/source/library/math/exp.o
 .rodata        0x43c24490       0x18 .obj/source/library/math/expf.o
 .rodata        0x43c244a8       0x10 .obj/source/library/math/fmod.o
 .rodata        0x43c244b8        0x8 .obj/source/library/math/fmodf.o
 .rodata        0x43c244c0       0x50 .obj/source/library/math/k_rem_pio2.o
 .rodata        0x43c24510       0x40 .obj/source/library/math/k_rem_pio2f.o
 .rodata        0x43c24550       0x30 .obj/source/library/math/pow.o
 .rodata        0x43c24580       0x18 .obj/source/library/math/powf.o
 .rodata        0x43c24598      0x4a0 .obj/source/graphic/color.o
 .rodata.str1.4
                0x43c24a38       0x10 .obj/source/tester-key-with-led.o
 .rodata.str1.4
                0x43c24a48        0x8 .obj/source/hardware/s5p6818-alv.o
 .rodata.str1.4
                0x43c24a50      0x24f .obj/source/hardware/s5p6818-clk.o
                                0x250 (size before relaxing)
 *fill*         0x43c24c9f        0x1 
 .rodata.str1.4
                0x43c24ca0        0x5 .obj/source/hardware/s5p6818-fb.o
                                  0x8 (size before relaxing)
 *fill*         0x43c24ca5        0x3 
 .rodata.str1.4
                0x43c24ca8       0x26 .obj/source/hardware/s5p6818-gpio.o
                                 0x28 (size before relaxing)
 *fill*         0x43c24cce        0x2 
 .rodata.str1.4
                0x43c24cd0      0x70d .obj/source/hardware/s5p6818-irq.o
                                0x750 (size before relaxing)
 *fill*         0x43c253dd        0x3 
 .rodata.str1.4
                0x43c253e0       0x15 .obj/source/hardware/s5p6818-pwm.o
                                 0x48 (size before relaxing)
 .rodata.str1.4
                0x00000000       0x30 .obj/source/hardware/s5p6818-serial.o
 .rodata.str1.4
                0x00000000        0x8 .obj/source/hardware/s5p6818-tick.o
 .rodata.str1.4
                0x00000000       0x30 .obj/source/hardware/s5p6818-timer.o
 *fill*         0x43c253f5        0x3 
 .rodata.str1.4
                0x43c253f8      0x2f1 .obj/source/library/errno/strerror.o
                                0x2f4 (size before relaxing)
 *fill*         0x43c256e9        0x3 
 .rodata.str1.4
                0x43c256ec        0x7 .obj/source/library/stdio/vsnprintf.o
                                  0x8 (size before relaxing)
 *fill*         0x43c256f3        0x1 
 .rodata.str1.4
                0x43c256f4      0x5e4 .obj/source/graphic/color.o
                                0x6a0 (size before relaxing)
                0x43c25cd8                PROVIDE (__rodata_end, .)

.data_shadow    0x43c25cd8        0x0
                0x43c25cd8                PROVIDE (__data_shadow_start, .)
                0x43c27808                PROVIDE (__data_shadow_end, (. + SIZEOF (.data)))
                0x43c25cd8                PROVIDE (__image_end, .)

.data           0x45100000     0x1b30 load address 0x43c25cd8
                0x45100000                PROVIDE (__data_start, .)
 *(.data*)
 .data          0x45100000        0x0 .obj/source/startup/start.o
 .data          0x45100000        0x0 .obj/source/arm/memcmp.o
 .data          0x45100000        0x0 .obj/source/arm/memcpy.o
 .data          0x45100000        0x0 .obj/source/arm/memmove.o
 .data          0x45100000        0x0 .obj/source/arm/memset.o
 .data          0x45100000        0x0 .obj/source/arm/strcmp.o
 .data          0x45100000        0x0 .obj/source/arm/strncmp.o
 .data          0x45100000        0x0 .obj/source/main.o
 .data          0x45100000        0x0 .obj/source/tester-key-with-led.o
 .data          0x45100000        0x0 .obj/source/hardware/hw-beep.o
 .data          0x45100000        0x0 .obj/source/hardware/hw-key.o
 .data          0x45100000        0x0 .obj/source/hardware/hw-led.o
 .data          0x45100000       0x44 .obj/source/hardware/s5p6818-alv.o
                0x45100000                gpiochip_alv
 *fill*         0x45100044        0x4 
 .data          0x45100048      0x410 .obj/source/hardware/s5p6818-clk.o
 .data          0x45100458       0xbc .obj/source/hardware/s5p6818-fb.o
 .data          0x45100514       0x50 .obj/source/hardware/s5p6818-gpio.o
 .data          0x45100564     0x1548 .obj/source/hardware/s5p6818-irq.o
 .data          0x45101aac       0x50 .obj/source/hardware/s5p6818-pwm.o
 .data          0x45101afc        0x0 .obj/source/hardware/s5p6818-rstcon.o
 .data          0x45101afc        0x0 .obj/source/hardware/s5p6818-serial-stdio.o
 .data          0x45101afc        0x0 .obj/source/hardware/s5p6818-serial.o
 .data          0x45101afc        0x0 .obj/source/hardware/s5p6818-tick-delay.o
 .data          0x45101afc        0x0 .obj/source/hardware/s5p6818-tick.o
 .data          0x45101afc        0x0 .obj/source/hardware/s5p6818-timer.o
 .data          0x45101afc        0x0 .obj/source/hardware/clk/clk-divider.o
 .data          0x45101afc        0x0 .obj/source/hardware/clk/clk-fixed-factor.o
 .data          0x45101afc        0x0 .obj/source/hardware/clk/clk-fixed.o
 .data          0x45101afc        0x0 .obj/source/hardware/clk/clk-gate.o
 .data          0x45101afc        0x0 .obj/source/hardware/clk/clk-link.o
 .data          0x45101afc        0x0 .obj/source/hardware/clk/clk-mux.o
 .data          0x45101afc        0x0 .obj/source/hardware/clk/clk-pll.o
 .data          0x45101afc        0xc .obj/source/hardware/clk/clk.o
 .data          0x45101b08        0xc .obj/source/hardware/gpio/gpio.o
                0x45101b08                __gpiochip_list
 .data          0x45101b14        0xc .obj/source/hardware/interrupt/interrupt.o
                0x45101b14                __irq_list
 .data          0x45101b20        0xc .obj/source/hardware/pwm/pwm.o
                0x45101b20                __pwm_list
 .data          0x45101b2c        0x0 .obj/source/arm/cp15.o
 .data          0x45101b2c        0x0 .obj/source/library/ctype/ctype.o
 .data          0x45101b2c        0x0 .obj/source/library/ctype/isalnum.o
 .data          0x45101b2c        0x0 .obj/source/library/ctype/isalpha.o
 .data          0x45101b2c        0x0 .obj/source/library/ctype/isascii.o
 .data          0x45101b2c        0x0 .obj/source/library/ctype/isblank.o
 .data          0x45101b2c        0x0 .obj/source/library/ctype/iscntrl.o
 .data          0x45101b2c        0x0 .obj/source/library/ctype/isdigit.o
 .data          0x45101b2c        0x0 .obj/source/library/ctype/isgraph.o
 .data          0x45101b2c        0x0 .obj/source/library/ctype/islower.o
 .data          0x45101b2c        0x0 .obj/source/library/ctype/isprint.o
 .data          0x45101b2c        0x0 .obj/source/library/ctype/ispunct.o
 .data          0x45101b2c        0x0 .obj/source/library/ctype/isspace.o
 .data          0x45101b2c        0x0 .obj/source/library/ctype/isupper.o
 .data          0x45101b2c        0x0 .obj/source/library/ctype/isxdigit.o
 .data          0x45101b2c        0x0 .obj/source/library/ctype/toascii.o
 .data          0x45101b2c        0x0 .obj/source/library/ctype/tolower.o
 .data          0x45101b2c        0x0 .obj/source/library/ctype/toupper.o
 .data          0x45101b2c        0x0 .obj/source/library/errno/errno.o
 .data          0x45101b2c        0x0 .obj/source/library/errno/strerror.o
 .data          0x45101b2c        0x0 .obj/source/library/exit/abort.o
 .data          0x45101b2c        0x0 .obj/source/library/exit/assert.o
 .data          0x45101b2c        0x0 .obj/source/library/exit/exit.o
 .data          0x45101b2c        0x0 .obj/source/library/malloc/malloc.o
 .data          0x45101b2c        0x0 .obj/source/library/stdlib/abs.o
 .data          0x45101b2c        0x0 .obj/source/library/stdlib/atof.o
 .data          0x45101b2c        0x0 .obj/source/library/stdlib/atoi.o
 .data          0x45101b2c        0x0 .obj/source/library/stdlib/atol.o
 .data          0x45101b2c        0x0 .obj/source/library/stdlib/atoll.o
 .data          0x45101b2c        0x0 .obj/source/library/stdlib/bsearch.o
 .data          0x45101b2c        0x0 .obj/source/library/stdlib/div.o
 .data          0x45101b2c        0x0 .obj/source/library/stdlib/labs.o
 .data          0x45101b2c        0x0 .obj/source/library/stdlib/ldiv.o
 .data          0x45101b2c        0x0 .obj/source/library/stdlib/llabs.o
 .data          0x45101b2c        0x0 .obj/source/library/stdlib/lldiv.o
 .data          0x45101b2c        0x0 .obj/source/library/stdlib/qsort.o
 .data          0x45101b2c        0x0 .obj/source/library/stdlib/rand.o
 .data          0x45101b2c        0x0 .obj/source/library/stdlib/strntoimax.o
 .data          0x45101b2c        0x0 .obj/source/library/stdlib/strntoumax.o
 .data          0x45101b2c        0x0 .obj/source/library/stdlib/strtod.o
 .data          0x45101b2c        0x0 .obj/source/library/stdlib/strtoimax.o
 .data          0x45101b2c        0x0 .obj/source/library/stdlib/strtol.o
 .data          0x45101b2c        0x0 .obj/source/library/stdlib/strtoll.o
 .data          0x45101b2c        0x0 .obj/source/library/stdlib/strtoul.o
 .data          0x45101b2c        0x0 .obj/source/library/stdlib/strtoull.o
 .data          0x45101b2c        0x0 .obj/source/library/stdlib/strtoumax.o
 .data          0x45101b2c        0x0 .obj/source/library/string/memchr.o
 .data          0x45101b2c        0x0 .obj/source/library/string/memcmp.o
 .data          0x45101b2c        0x0 .obj/source/library/string/memcpy.o
 .data          0x45101b2c        0x0 .obj/source/library/string/memmove.o
 .data          0x45101b2c        0x0 .obj/source/library/string/memscan.o
 .data          0x45101b2c        0x0 .obj/source/library/string/memset.o
 .data          0x45101b2c        0x0 .obj/source/library/string/strcasecmp.o
 .data          0x45101b2c        0x0 .obj/source/library/string/strcat.o
 .data          0x45101b2c        0x0 .obj/source/library/string/strchr.o
 .data          0x45101b2c        0x0 .obj/source/library/string/strcmp.o
 .data          0x45101b2c        0x0 .obj/source/library/string/strcoll.o
 .data          0x45101b2c        0x0 .obj/source/library/string/strcpy.o
 .data          0x45101b2c        0x0 .obj/source/library/string/strcspn.o
 .data          0x45101b2c        0x0 .obj/source/library/string/strdup.o
 .data          0x45101b2c        0x0 .obj/source/library/string/strlcat.o
 .data          0x45101b2c        0x0 .obj/source/library/string/strlcpy.o
 .data          0x45101b2c        0x0 .obj/source/library/string/strlen.o
 .data          0x45101b2c        0x0 .obj/source/library/string/strncasecmp.o
 .data          0x45101b2c        0x0 .obj/source/library/string/strncat.o
 .data          0x45101b2c        0x0 .obj/source/library/string/strnchr.o
 .data          0x45101b2c        0x0 .obj/source/library/string/strncmp.o
 .data          0x45101b2c        0x0 .obj/source/library/string/strncpy.o
 .data          0x45101b2c        0x0 .obj/source/library/string/strnicmp.o
 .data          0x45101b2c        0x0 .obj/source/library/string/strnlen.o
 .data          0x45101b2c        0x0 .obj/source/library/string/strnstr.o
 .data          0x45101b2c        0x0 .obj/source/library/string/strpbrk.o
 .data          0x45101b2c        0x0 .obj/source/library/string/strrchr.o
 .data          0x45101b2c        0x0 .obj/source/library/string/strsep.o
 .data          0x45101b2c        0x0 .obj/source/library/string/strspn.o
 .data          0x45101b2c        0x0 .obj/source/library/string/strstr.o
 .data          0x45101b2c        0x0 .obj/source/library/stdio/snprintf.o
 .data          0x45101b2c        0x0 .obj/source/library/stdio/sprintf.o
 .data          0x45101b2c        0x0 .obj/source/library/stdio/sscanf.o
 .data          0x45101b2c        0x0 .obj/source/library/stdio/vsnprintf.o
 .data          0x45101b2c        0x0 .obj/source/library/stdio/vsscanf.o
 .data          0x45101b2c        0x0 .obj/source/library/math/acos.o
 .data          0x45101b2c        0x0 .obj/source/library/math/acosf.o
 .data          0x45101b2c        0x0 .obj/source/library/math/asin.o
 .data          0x45101b2c        0x0 .obj/source/library/math/asinf.o
 .data          0x45101b2c        0x0 .obj/source/library/math/atan.o
 .data          0x45101b2c        0x0 .obj/source/library/math/atan2.o
 .data          0x45101b2c        0x0 .obj/source/library/math/atan2f.o
 .data          0x45101b2c        0x0 .obj/source/library/math/atanf.o
 .data          0x45101b2c        0x0 .obj/source/library/math/ceil.o
 .data          0x45101b2c        0x0 .obj/source/library/math/ceilf.o
 .data          0x45101b2c        0x0 .obj/source/library/math/copysign.o
 .data          0x45101b2c        0x0 .obj/source/library/math/copysignf.o
 .data          0x45101b2c        0x0 .obj/source/library/math/cos.o
 .data          0x45101b2c        0x0 .obj/source/library/math/cosf.o
 .data          0x45101b2c        0x0 .obj/source/library/math/cosh.o
 .data          0x45101b2c        0x0 .obj/source/library/math/coshf.o
 .data          0x45101b2c        0x0 .obj/source/library/math/e_rem_pio2.o
 .data          0x45101b2c        0x0 .obj/source/library/math/e_rem_pio2f.o
 .data          0x45101b2c        0x0 .obj/source/library/math/exp.o
 .data          0x45101b2c        0x0 .obj/source/library/math/expf.o
 .data          0x45101b2c        0x0 .obj/source/library/math/expm1.o
 .data          0x45101b2c        0x0 .obj/source/library/math/expm1f.o
 .data          0x45101b2c        0x0 .obj/source/library/math/fabs.o
 .data          0x45101b2c        0x0 .obj/source/library/math/fabsf.o
 .data          0x45101b2c        0x0 .obj/source/library/math/floor.o
 .data          0x45101b2c        0x0 .obj/source/library/math/floorf.o
 .data          0x45101b2c        0x0 .obj/source/library/math/fmod.o
 .data          0x45101b2c        0x0 .obj/source/library/math/fmodf.o
 .data          0x45101b2c        0x0 .obj/source/library/math/frexp.o
 .data          0x45101b2c        0x0 .obj/source/library/math/frexpf.o
 .data          0x45101b2c        0x0 .obj/source/library/math/hypot.o
 .data          0x45101b2c        0x0 .obj/source/library/math/hypotf.o
 .data          0x45101b2c        0x0 .obj/source/library/math/k_cos.o
 .data          0x45101b2c        0x0 .obj/source/library/math/k_cosf.o
 .data          0x45101b2c        0x0 .obj/source/library/math/k_rem_pio2.o
 .data          0x45101b2c        0x0 .obj/source/library/math/k_rem_pio2f.o
 .data          0x45101b2c        0x0 .obj/source/library/math/k_sin.o
 .data          0x45101b2c        0x0 .obj/source/library/math/k_sinf.o
 .data          0x45101b2c        0x0 .obj/source/library/math/k_tan.o
 .data          0x45101b2c        0x0 .obj/source/library/math/k_tanf.o
 .data          0x45101b2c        0x0 .obj/source/library/math/log.o
 .data          0x45101b2c        0x0 .obj/source/library/math/log10.o
 .data          0x45101b2c        0x0 .obj/source/library/math/log10f.o
 .data          0x45101b2c        0x0 .obj/source/library/math/logf.o
 .data          0x45101b2c        0x0 .obj/source/library/math/modf.o
 .data          0x45101b2c        0x0 .obj/source/library/math/modff.o
 .data          0x45101b2c        0x0 .obj/source/library/math/pow.o
 .data          0x45101b2c        0x0 .obj/source/library/math/powf.o
 .data          0x45101b2c        0x0 .obj/source/library/math/scalbn.o
 .data          0x45101b2c        0x0 .obj/source/library/math/scalbnf.o
 .data          0x45101b2c        0x0 .obj/source/library/math/sin.o
 .data          0x45101b2c        0x0 .obj/source/library/math/sinf.o
 .data          0x45101b2c        0x0 .obj/source/library/math/sinh.o
 .data          0x45101b2c        0x0 .obj/source/library/math/sinhf.o
 .data          0x45101b2c        0x0 .obj/source/library/math/sqrt.o
 .data          0x45101b2c        0x0 .obj/source/library/math/sqrtf.o
 .data          0x45101b2c        0x0 .obj/source/library/math/tan.o
 .data          0x45101b2c        0x0 .obj/source/library/math/tanf.o
 .data          0x45101b2c        0x0 .obj/source/library/math/tanh.o
 .data          0x45101b2c        0x0 .obj/source/library/math/tanhf.o
 .data          0x45101b2c        0x0 .obj/source/graphic/color.o
 .data          0x45101b2c        0x0 .obj/source/graphic/maps.o
 .data          0x45101b2c        0x0 .obj/source/graphic/pixel.o
 .data          0x45101b2c        0x0 .obj/source/graphic/rect.o
 .data          0x45101b2c        0x0 .obj/source/graphic/surface.o
 .data          0x45101b2c        0x0 .obj/source/graphic/maps/software/sw_blit.o
 .data          0x45101b2c        0x0 .obj/source/graphic/maps/software/sw_blit_alpha.o
 .data          0x45101b2c        0x0 .obj/source/graphic/maps/software/sw_blit_replace.o
 .data          0x45101b2c        0x0 .obj/source/graphic/maps/software/sw_fill.o
 .data          0x45101b2c        0x0 .obj/source/graphic/maps/software/sw_hline.o
 .data          0x45101b2c        0x0 .obj/source/graphic/maps/software/sw_point.o
 .data          0x45101b2c        0x0 .obj/source/graphic/maps/software/sw_rotate.o
 .data          0x45101b2c        0x0 .obj/source/graphic/maps/software/sw_scale.o
 .data          0x45101b2c        0x0 .obj/source/graphic/maps/software/sw_utils.o
 .data          0x45101b2c        0x0 .obj/source/graphic/maps/software/sw_vline.o
 .data          0x45101b2c        0x0 c:/yagarto-20121222/bin/../lib/gcc/arm-none-eabi/4.7.2\libgcc.a(_udivsi3.o)
 .data          0x45101b2c        0x0 c:/yagarto-20121222/bin/../lib/gcc/arm-none-eabi/4.7.2\libgcc.a(_divsi3.o)
 .data          0x45101b2c        0x0 c:/yagarto-20121222/bin/../lib/gcc/arm-none-eabi/4.7.2\libgcc.a(_dvmd_tls.o)
 .data          0x45101b2c        0x0 c:/yagarto-20121222/bin/../lib/gcc/arm-none-eabi/4.7.2\libgcc.a(_aeabi_ldivmod.o)
 .data          0x45101b2c        0x0 c:/yagarto-20121222/bin/../lib/gcc/arm-none-eabi/4.7.2\libgcc.a(_aeabi_uldivmod.o)
 .data          0x45101b2c        0x0 c:/yagarto-20121222/bin/../lib/gcc/arm-none-eabi/4.7.2\libgcc.a(bpabi.o)
 .data          0x45101b2c        0x0 c:/yagarto-20121222/bin/../lib/gcc/arm-none-eabi/4.7.2\libgcc.a(_divdi3.o)
 .data          0x45101b2c        0x0 c:/yagarto-20121222/bin/../lib/gcc/arm-none-eabi/4.7.2\libgcc.a(_udivdi3.o)
 .data          0x45101b2c        0x0 c:/yagarto-20121222/bin/../lib/gcc/arm-none-eabi/4.7.2\libgcc.a(unwind-arm.o)
 .data          0x45101b2c        0x0 c:/yagarto-20121222/bin/../lib/gcc/arm-none-eabi/4.7.2\libgcc.a(libunwind.o)
 .data          0x45101b2c        0x0 c:/yagarto-20121222/bin/../lib/gcc/arm-none-eabi/4.7.2\libgcc.a(pr-support.o)
 .data          0x45101b2c        0x0 c:/yagarto-20121222/bin/../lib/gcc/arm-none-eabi/4.7.2\libgcc.a(_clzsi2.o)
                0x45101b30                . = ALIGN (0x8)
 *fill*         0x45101b2c        0x4 
                0x45101b30                PROVIDE (__data_end, .)

.igot.plt       0x45101b30        0x0 load address 0x43c27808
 .igot.plt      0x00000000        0x0 .obj/source/startup/start.o

.ARM.exidx      0x45101b30       0xd0 load address 0x43c27808
                0x45101b30                PROVIDE (__exidx_start, .)
 *(.ARM.exidx*)
 .ARM.exidx     0x45101b30        0x8 c:/yagarto-20121222/bin/../lib/gcc/arm-none-eabi/4.7.2\libgcc.a(_divdi3.o)
 .ARM.exidx     0x45101b38        0x0 c:/yagarto-20121222/bin/../lib/gcc/arm-none-eabi/4.7.2\libgcc.a(_udivdi3.o)
                                  0x8 (size before relaxing)
 .ARM.exidx     0x45101b38       0x90 c:/yagarto-20121222/bin/../lib/gcc/arm-none-eabi/4.7.2\libgcc.a(unwind-arm.o)
                                 0xd8 (size before relaxing)
 .ARM.exidx     0x45101bc8       0x38 c:/yagarto-20121222/bin/../lib/gcc/arm-none-eabi/4.7.2\libgcc.a(pr-support.o)
                                 0x48 (size before relaxing)
                0x45101c00                PROVIDE (__exidx_end, .)

.ARM.extab      0x45101c00       0x30 load address 0x43c278d8
                0x45101c00                PROVIDE (__extab_start, .)
 *(.ARM.extab*)
 .ARM.extab     0x45101c00        0x0 c:/yagarto-20121222/bin/../lib/gcc/arm-none-eabi/4.7.2\libgcc.a(_divdi3.o)
 .ARM.extab     0x45101c00        0x0 c:/yagarto-20121222/bin/../lib/gcc/arm-none-eabi/4.7.2\libgcc.a(_udivdi3.o)
 .ARM.extab     0x45101c00       0x18 c:/yagarto-20121222/bin/../lib/gcc/arm-none-eabi/4.7.2\libgcc.a(unwind-arm.o)
 .ARM.extab     0x45101c18       0x18 c:/yagarto-20121222/bin/../lib/gcc/arm-none-eabi/4.7.2\libgcc.a(pr-support.o)
                0x45101c30                PROVIDE (__extab_end, .)

.rel.dyn        0x45101c30        0x0 load address 0x43c27908
 .rel.iplt      0x00000000        0x0 .obj/source/startup/start.o

.bss            0x45101c30   0x4b08c0 load address 0x43c27908
                0x45101c30                PROVIDE (__bss_start, .)
 *(.bss*)
 .bss           0x45101c30        0x0 .obj/source/startup/start.o
 .bss           0x45101c30        0x0 .obj/source/arm/memcmp.o
 .bss           0x45101c30        0x0 .obj/source/arm/memcpy.o
 .bss           0x45101c30        0x0 .obj/source/arm/memmove.o
 .bss           0x45101c30        0x0 .obj/source/arm/memset.o
 .bss           0x45101c30        0x0 .obj/source/arm/strcmp.o
 .bss           0x45101c30        0x0 .obj/source/arm/strncmp.o
 .bss           0x45101c30        0x0 .obj/source/main.o
 .bss           0x45101c30        0x0 .obj/source/tester-key-with-led.o
 .bss           0x45101c30        0x0 .obj/source/hardware/hw-beep.o
 .bss           0x45101c30       0x10 .obj/source/hardware/hw-key.o
 .bss           0x45101c40        0x0 .obj/source/hardware/hw-led.o
 .bss           0x45101c40        0x0 .obj/source/hardware/s5p6818-alv.o
 .bss           0x45101c40        0x0 .obj/source/hardware/s5p6818-clk.o
 .bss           0x45101c40   0x4b0058 .obj/source/hardware/s5p6818-fb.o
 .bss           0x455b1c98        0x0 .obj/source/hardware/s5p6818-gpio.o
 .bss           0x455b1c98      0x830 .obj/source/hardware/s5p6818-irq.o
 .bss           0x455b24c8        0x0 .obj/source/hardware/s5p6818-pwm.o
 .bss           0x455b24c8        0x0 .obj/source/hardware/s5p6818-rstcon.o
 .bss           0x455b24c8        0x0 .obj/source/hardware/s5p6818-serial-stdio.o
 .bss           0x455b24c8        0x0 .obj/source/hardware/s5p6818-serial.o
 .bss           0x455b24c8        0x4 .obj/source/hardware/s5p6818-tick-delay.o
 .bss           0x455b24cc        0x8 .obj/source/hardware/s5p6818-tick.o
                0x455b24cc                jiffies
 .bss           0x455b24d4        0x0 .obj/source/hardware/s5p6818-timer.o
 .bss           0x455b24d4        0x0 .obj/source/hardware/clk/clk-divider.o
 .bss           0x455b24d4        0x0 .obj/source/hardware/clk/clk-fixed-factor.o
 .bss           0x455b24d4        0x0 .obj/source/hardware/clk/clk-fixed.o
 .bss           0x455b24d4        0x0 .obj/source/hardware/clk/clk-gate.o
 .bss           0x455b24d4        0x0 .obj/source/hardware/clk/clk-link.o
 .bss           0x455b24d4        0x0 .obj/source/hardware/clk/clk-mux.o
 .bss           0x455b24d4        0x0 .obj/source/hardware/clk/clk-pll.o
 .bss           0x455b24d4        0x0 .obj/source/hardware/clk/clk.o
 .bss           0x455b24d4        0x0 .obj/source/hardware/gpio/gpio.o
 .bss           0x455b24d4        0x0 .obj/source/hardware/interrupt/interrupt.o
 .bss           0x455b24d4        0x0 .obj/source/hardware/pwm/pwm.o
 .bss           0x455b24d4        0x0 .obj/source/arm/cp15.o
 .bss           0x455b24d4        0x0 .obj/source/library/ctype/ctype.o
 .bss           0x455b24d4        0x0 .obj/source/library/ctype/isalnum.o
 .bss           0x455b24d4        0x0 .obj/source/library/ctype/isalpha.o
 .bss           0x455b24d4        0x0 .obj/source/library/ctype/isascii.o
 .bss           0x455b24d4        0x0 .obj/source/library/ctype/isblank.o
 .bss           0x455b24d4        0x0 .obj/source/library/ctype/iscntrl.o
 .bss           0x455b24d4        0x0 .obj/source/library/ctype/isdigit.o
 .bss           0x455b24d4        0x0 .obj/source/library/ctype/isgraph.o
 .bss           0x455b24d4        0x0 .obj/source/library/ctype/islower.o
 .bss           0x455b24d4        0x0 .obj/source/library/ctype/isprint.o
 .bss           0x455b24d4        0x0 .obj/source/library/ctype/ispunct.o
 .bss           0x455b24d4        0x0 .obj/source/library/ctype/isspace.o
 .bss           0x455b24d4        0x0 .obj/source/library/ctype/isupper.o
 .bss           0x455b24d4        0x0 .obj/source/library/ctype/isxdigit.o
 .bss           0x455b24d4        0x0 .obj/source/library/ctype/toascii.o
 .bss           0x455b24d4        0x0 .obj/source/library/ctype/tolower.o
 .bss           0x455b24d4        0x0 .obj/source/library/ctype/toupper.o
 .bss           0x455b24d4        0x4 .obj/source/library/errno/errno.o
 .bss           0x455b24d8        0x0 .obj/source/library/errno/strerror.o
 .bss           0x455b24d8        0x0 .obj/source/library/exit/abort.o
 .bss           0x455b24d8        0x0 .obj/source/library/exit/assert.o
 .bss           0x455b24d8        0x0 .obj/source/library/exit/exit.o
 .bss           0x455b24d8        0x4 .obj/source/library/malloc/malloc.o
 .bss           0x455b24dc        0x0 .obj/source/library/stdlib/abs.o
 .bss           0x455b24dc        0x0 .obj/source/library/stdlib/atof.o
 .bss           0x455b24dc        0x0 .obj/source/library/stdlib/atoi.o
 .bss           0x455b24dc        0x0 .obj/source/library/stdlib/atol.o
 .bss           0x455b24dc        0x0 .obj/source/library/stdlib/atoll.o
 .bss           0x455b24dc        0x0 .obj/source/library/stdlib/bsearch.o
 .bss           0x455b24dc        0x0 .obj/source/library/stdlib/div.o
 .bss           0x455b24dc        0x0 .obj/source/library/stdlib/labs.o
 .bss           0x455b24dc        0x0 .obj/source/library/stdlib/ldiv.o
 .bss           0x455b24dc        0x0 .obj/source/library/stdlib/llabs.o
 .bss           0x455b24dc        0x0 .obj/source/library/stdlib/lldiv.o
 .bss           0x455b24dc        0x0 .obj/source/library/stdlib/qsort.o
 *fill*         0x455b24dc        0x4 
 .bss           0x455b24e0        0x8 .obj/source/library/stdlib/rand.o
 .bss           0x455b24e8        0x0 .obj/source/library/stdlib/strntoimax.o
 .bss           0x455b24e8        0x0 .obj/source/library/stdlib/strntoumax.o
 .bss           0x455b24e8        0x0 .obj/source/library/stdlib/strtod.o
 .bss           0x455b24e8        0x0 .obj/source/library/stdlib/strtoimax.o
 .bss           0x455b24e8        0x0 .obj/source/library/stdlib/strtol.o
 .bss           0x455b24e8        0x0 .obj/source/library/stdlib/strtoll.o
 .bss           0x455b24e8        0x0 .obj/source/library/stdlib/strtoul.o
 .bss           0x455b24e8        0x0 .obj/source/library/stdlib/strtoull.o
 .bss           0x455b24e8        0x0 .obj/source/library/stdlib/strtoumax.o
 .bss           0x455b24e8        0x0 .obj/source/library/string/memchr.o
 .bss           0x455b24e8        0x0 .obj/source/library/string/memcmp.o
 .bss           0x455b24e8        0x0 .obj/source/library/string/memcpy.o
 .bss           0x455b24e8        0x0 .obj/source/library/string/memmove.o
 .bss           0x455b24e8        0x0 .obj/source/library/string/memscan.o
 .bss           0x455b24e8        0x0 .obj/source/library/string/memset.o
 .bss           0x455b24e8        0x0 .obj/source/library/string/strcasecmp.o
 .bss           0x455b24e8        0x0 .obj/source/library/string/strcat.o
 .bss           0x455b24e8        0x0 .obj/source/library/string/strchr.o
 .bss           0x455b24e8        0x0 .obj/source/library/string/strcmp.o
 .bss           0x455b24e8        0x0 .obj/source/library/string/strcoll.o
 .bss           0x455b24e8        0x0 .obj/source/library/string/strcpy.o
 .bss           0x455b24e8        0x0 .obj/source/library/string/strcspn.o
 .bss           0x455b24e8        0x0 .obj/source/library/string/strdup.o
 .bss           0x455b24e8        0x0 .obj/source/library/string/strlcat.o
 .bss           0x455b24e8        0x0 .obj/source/library/string/strlcpy.o
 .bss           0x455b24e8        0x0 .obj/source/library/string/strlen.o
 .bss           0x455b24e8        0x0 .obj/source/library/string/strncasecmp.o
 .bss           0x455b24e8        0x0 .obj/source/library/string/strncat.o
 .bss           0x455b24e8        0x0 .obj/source/library/string/strnchr.o
 .bss           0x455b24e8        0x0 .obj/source/library/string/strncmp.o
 .bss           0x455b24e8        0x0 .obj/source/library/string/strncpy.o
 .bss           0x455b24e8        0x0 .obj/source/library/string/strnicmp.o
 .bss           0x455b24e8        0x0 .obj/source/library/string/strnlen.o
 .bss           0x455b24e8        0x0 .obj/source/library/string/strnstr.o
 .bss           0x455b24e8        0x0 .obj/source/library/string/strpbrk.o
 .bss           0x455b24e8        0x0 .obj/source/library/string/strrchr.o
 .bss           0x455b24e8        0x0 .obj/source/library/string/strsep.o
 .bss           0x455b24e8        0x0 .obj/source/library/string/strspn.o
 .bss           0x455b24e8        0x0 .obj/source/library/string/strstr.o
 .bss           0x455b24e8        0x0 .obj/source/library/stdio/snprintf.o
 .bss           0x455b24e8        0x0 .obj/source/library/stdio/sprintf.o
 .bss           0x455b24e8        0x0 .obj/source/library/stdio/sscanf.o
 .bss           0x455b24e8        0x0 .obj/source/library/stdio/vsnprintf.o
 .bss           0x455b24e8        0x0 .obj/source/library/stdio/vsscanf.o
 .bss           0x455b24e8        0x0 .obj/source/library/math/acos.o
 .bss           0x455b24e8        0x0 .obj/source/library/math/acosf.o
 .bss           0x455b24e8        0x0 .obj/source/library/math/asin.o
 .bss           0x455b24e8        0x0 .obj/source/library/math/asinf.o
 .bss           0x455b24e8        0x0 .obj/source/library/math/atan.o
 .bss           0x455b24e8        0x0 .obj/source/library/math/atan2.o
 .bss           0x455b24e8        0x0 .obj/source/library/math/atan2f.o
 .bss           0x455b24e8        0x0 .obj/source/library/math/atanf.o
 .bss           0x455b24e8        0x0 .obj/source/library/math/ceil.o
 .bss           0x455b24e8        0x0 .obj/source/library/math/ceilf.o
 .bss           0x455b24e8        0x0 .obj/source/library/math/copysign.o
 .bss           0x455b24e8        0x0 .obj/source/library/math/copysignf.o
 .bss           0x455b24e8        0x0 .obj/source/library/math/cos.o
 .bss           0x455b24e8        0x0 .obj/source/library/math/cosf.o
 .bss           0x455b24e8        0x0 .obj/source/library/math/cosh.o
 .bss           0x455b24e8        0x0 .obj/source/library/math/coshf.o
 .bss           0x455b24e8        0x0 .obj/source/library/math/e_rem_pio2.o
 .bss           0x455b24e8        0x0 .obj/source/library/math/e_rem_pio2f.o
 .bss           0x455b24e8        0x0 .obj/source/library/math/exp.o
 .bss           0x455b24e8        0x0 .obj/source/library/math/expf.o
 .bss           0x455b24e8        0x0 .obj/source/library/math/expm1.o
 .bss           0x455b24e8        0x0 .obj/source/library/math/expm1f.o
 .bss           0x455b24e8        0x0 .obj/source/library/math/fabs.o
 .bss           0x455b24e8        0x0 .obj/source/library/math/fabsf.o
 .bss           0x455b24e8        0x0 .obj/source/library/math/floor.o
 .bss           0x455b24e8        0x0 .obj/source/library/math/floorf.o
 .bss           0x455b24e8        0x0 .obj/source/library/math/fmod.o
 .bss           0x455b24e8        0x0 .obj/source/library/math/fmodf.o
 .bss           0x455b24e8        0x0 .obj/source/library/math/frexp.o
 .bss           0x455b24e8        0x0 .obj/source/library/math/frexpf.o
 .bss           0x455b24e8        0x0 .obj/source/library/math/hypot.o
 .bss           0x455b24e8        0x0 .obj/source/library/math/hypotf.o
 .bss           0x455b24e8        0x0 .obj/source/library/math/k_cos.o
 .bss           0x455b24e8        0x0 .obj/source/library/math/k_cosf.o
 .bss           0x455b24e8        0x0 .obj/source/library/math/k_rem_pio2.o
 .bss           0x455b24e8        0x0 .obj/source/library/math/k_rem_pio2f.o
 .bss           0x455b24e8        0x0 .obj/source/library/math/k_sin.o
 .bss           0x455b24e8        0x0 .obj/source/library/math/k_sinf.o
 .bss           0x455b24e8        0x0 .obj/source/library/math/k_tan.o
 .bss           0x455b24e8        0x0 .obj/source/library/math/k_tanf.o
 .bss           0x455b24e8        0x0 .obj/source/library/math/log.o
 .bss           0x455b24e8        0x0 .obj/source/library/math/log10.o
 .bss           0x455b24e8        0x0 .obj/source/library/math/log10f.o
 .bss           0x455b24e8        0x0 .obj/source/library/math/logf.o
 .bss           0x455b24e8        0x0 .obj/source/library/math/modf.o
 .bss           0x455b24e8        0x0 .obj/source/library/math/modff.o
 .bss           0x455b24e8        0x0 .obj/source/library/math/pow.o
 .bss           0x455b24e8        0x0 .obj/source/library/math/powf.o
 .bss           0x455b24e8        0x0 .obj/source/library/math/scalbn.o
 .bss           0x455b24e8        0x0 .obj/source/library/math/scalbnf.o
 .bss           0x455b24e8        0x0 .obj/source/library/math/sin.o
 .bss           0x455b24e8        0x0 .obj/source/library/math/sinf.o
 .bss           0x455b24e8        0x0 .obj/source/library/math/sinh.o
 .bss           0x455b24e8        0x0 .obj/source/library/math/sinhf.o
 .bss           0x455b24e8        0x0 .obj/source/library/math/sqrt.o
 .bss           0x455b24e8        0x0 .obj/source/library/math/sqrtf.o
 .bss           0x455b24e8        0x0 .obj/source/library/math/tan.o
 .bss           0x455b24e8        0x0 .obj/source/library/math/tanf.o
 .bss           0x455b24e8        0x0 .obj/source/library/math/tanh.o
 .bss           0x455b24e8        0x0 .obj/source/library/math/tanhf.o
 .bss           0x455b24e8        0x0 .obj/source/graphic/color.o
 .bss           0x455b24e8        0x0 .obj/source/graphic/maps.o
 .bss           0x455b24e8        0x0 .obj/source/graphic/pixel.o
 .bss           0x455b24e8        0x0 .obj/source/graphic/rect.o
 .bss           0x455b24e8        0x0 .obj/source/graphic/surface.o
 .bss           0x455b24e8        0x0 .obj/source/graphic/maps/software/sw_blit.o
 .bss           0x455b24e8        0x0 .obj/source/graphic/maps/software/sw_blit_alpha.o
 .bss           0x455b24e8        0x0 .obj/source/graphic/maps/software/sw_blit_replace.o
 .bss           0x455b24e8        0x0 .obj/source/graphic/maps/software/sw_fill.o
 .bss           0x455b24e8        0x0 .obj/source/graphic/maps/software/sw_hline.o
 .bss           0x455b24e8        0x0 .obj/source/graphic/maps/software/sw_point.o
 .bss           0x455b24e8        0x0 .obj/source/graphic/maps/software/sw_rotate.o
 .bss           0x455b24e8        0x0 .obj/source/graphic/maps/software/sw_scale.o
 .bss           0x455b24e8        0x0 .obj/source/graphic/maps/software/sw_utils.o
 .bss           0x455b24e8        0x0 .obj/source/graphic/maps/software/sw_vline.o
 .bss           0x455b24e8        0x0 c:/yagarto-20121222/bin/../lib/gcc/arm-none-eabi/4.7.2\libgcc.a(_udivsi3.o)
 .bss           0x455b24e8        0x0 c:/yagarto-20121222/bin/../lib/gcc/arm-none-eabi/4.7.2\libgcc.a(_divsi3.o)
 .bss           0x455b24e8        0x0 c:/yagarto-20121222/bin/../lib/gcc/arm-none-eabi/4.7.2\libgcc.a(_dvmd_tls.o)
 .bss           0x455b24e8        0x0 c:/yagarto-20121222/bin/../lib/gcc/arm-none-eabi/4.7.2\libgcc.a(_aeabi_ldivmod.o)
 .bss           0x455b24e8        0x0 c:/yagarto-20121222/bin/../lib/gcc/arm-none-eabi/4.7.2\libgcc.a(_aeabi_uldivmod.o)
 .bss           0x455b24e8        0x0 c:/yagarto-20121222/bin/../lib/gcc/arm-none-eabi/4.7.2\libgcc.a(bpabi.o)
 .bss           0x455b24e8        0x0 c:/yagarto-20121222/bin/../lib/gcc/arm-none-eabi/4.7.2\libgcc.a(_divdi3.o)
 .bss           0x455b24e8        0x0 c:/yagarto-20121222/bin/../lib/gcc/arm-none-eabi/4.7.2\libgcc.a(_udivdi3.o)
 .bss           0x455b24e8        0x0 c:/yagarto-20121222/bin/../lib/gcc/arm-none-eabi/4.7.2\libgcc.a(unwind-arm.o)
 .bss           0x455b24e8        0x0 c:/yagarto-20121222/bin/../lib/gcc/arm-none-eabi/4.7.2\libgcc.a(libunwind.o)
 .bss           0x455b24e8        0x0 c:/yagarto-20121222/bin/../lib/gcc/arm-none-eabi/4.7.2\libgcc.a(pr-support.o)
 .bss           0x455b24e8        0x0 c:/yagarto-20121222/bin/../lib/gcc/arm-none-eabi/4.7.2\libgcc.a(_clzsi2.o)
 *(.sbss*)
 *(COMMON)
 COMMON         0x455b24e8        0x1 .obj/source/tester-key-with-led.o
                0x455b24e8                key_st
                0x455b24f0                . = ALIGN (0x8)
 *fill*         0x455b24e9        0x7 
                0x455b24f0                PROVIDE (__bss_end, .)

.heap           0x455b24f0  0x8000000 load address 0x440d81c8
                0x455b24f0                PROVIDE (__heap_start, .)
 *(.heap*)
 .heap          0x455b24f0  0x8000000 .obj/source/library/malloc/malloc.o
                0x4d5b24f0                . = ALIGN (0x8)
                0x4d5b24f0                PROVIDE (__heap_end, .)

.stack          0x4d5b24f0   0x200000 load address 0x4c0d81c8
                0x4d5b24f0                PROVIDE (__stack_start, .)
                0x4d5b24f0                PROVIDE (__stack_und_start, .)
                0x4d5f24f0                . = (. + STACK_UND_SIZE)
 *fill*         0x4d5b24f0    0x40000 
                0x4d5f24f0                PROVIDE (__stack_und_end, .)
                0x4d5f24f0                . = ALIGN (0x8)
                0x4d5f24f0                PROVIDE (__stack_abt_start, .)
                0x4d6324f0                . = (. + STACK_ABT_SIZE)
 *fill*         0x4d5f24f0    0x40000 
                0x4d6324f0                PROVIDE (__stack_abt_end, .)
                0x4d6324f0                . = ALIGN (0x8)
                0x4d6324f0                PROVIDE (__stack_irq_start, .)
                0x4d6724f0                . = (. + STACK_IRQ_SIZE)
 *fill*         0x4d6324f0    0x40000 
                0x4d6724f0                PROVIDE (__stack_irq_end, .)
                0x4d6724f0                . = ALIGN (0x8)
                0x4d6724f0                PROVIDE (__stack_fiq_start, .)
                0x4d6b24f0                . = (. + STACK_FIQ_SIZE)
 *fill*         0x4d6724f0    0x40000 
                0x4d6b24f0                PROVIDE (__stack_fiq_end, .)
                0x4d6b24f0                . = ALIGN (0x8)
                0x4d6b24f0                PROVIDE (__stack_srv_start, .)
                0x4d7b24f0                . = (. + STACK_SRV_SIZE)
 *fill*         0x4d6b24f0   0x100000 
                0x4d7b24f0                PROVIDE (__stack_srv_end, .)
                0x4d7b24f0                . = ALIGN (0x8)
                0x4d7b24f0                PROVIDE (__stack_end, .)

.stab
 *(.stab)

.stabstr
 *(.stabstr)

.stab.excl
 *(.stab.excl)

.stab.exclstr
 *(.stab.exclstr)

.stab.index
 *(.stab.index)

.stab.indexstr
 *(.stab.indexstr)

.comment        0x00000000       0x11
 *(.comment)
 .comment       0x00000000       0x11 .obj/source/main.o
                                 0x12 (size before relaxing)
 .comment       0x00000000       0x12 .obj/source/tester-key-with-led.o
 .comment       0x00000000       0x12 .obj/source/hardware/hw-beep.o
 .comment       0x00000000       0x12 .obj/source/hardware/hw-key.o
 .comment       0x00000000       0x12 .obj/source/hardware/hw-led.o
 .comment       0x00000000       0x12 .obj/source/hardware/s5p6818-alv.o
 .comment       0x00000000       0x12 .obj/source/hardware/s5p6818-clk.o
 .comment       0x00000000       0x12 .obj/source/hardware/s5p6818-fb.o
 .comment       0x00000000       0x12 .obj/source/hardware/s5p6818-gpio.o
 .comment       0x00000000       0x12 .obj/source/hardware/s5p6818-irq.o
 .comment       0x00000000       0x12 .obj/source/hardware/s5p6818-pwm.o
 .comment       0x00000000       0x12 .obj/source/hardware/s5p6818-rstcon.o
 .comment       0x00000000       0x12 .obj/source/hardware/s5p6818-serial-stdio.o
 .comment       0x00000000       0x12 .obj/source/hardware/s5p6818-serial.o
 .comment       0x00000000       0x12 .obj/source/hardware/s5p6818-tick-delay.o
 .comment       0x00000000       0x12 .obj/source/hardware/s5p6818-tick.o
 .comment       0x00000000       0x12 .obj/source/hardware/s5p6818-timer.o
 .comment       0x00000000       0x12 .obj/source/hardware/clk/clk-divider.o
 .comment       0x00000000       0x12 .obj/source/hardware/clk/clk-fixed-factor.o
 .comment       0x00000000       0x12 .obj/source/hardware/clk/clk-fixed.o
 .comment       0x00000000       0x12 .obj/source/hardware/clk/clk-gate.o
 .comment       0x00000000       0x12 .obj/source/hardware/clk/clk-link.o
 .comment       0x00000000       0x12 .obj/source/hardware/clk/clk-mux.o
 .comment       0x00000000       0x12 .obj/source/hardware/clk/clk-pll.o
 .comment       0x00000000       0x12 .obj/source/hardware/clk/clk.o
 .comment       0x00000000       0x12 .obj/source/hardware/gpio/gpio.o
 .comment       0x00000000       0x12 .obj/source/hardware/interrupt/interrupt.o
 .comment       0x00000000       0x12 .obj/source/hardware/pwm/pwm.o
 .comment       0x00000000       0x12 .obj/source/arm/cp15.o
 .comment       0x00000000       0x12 .obj/source/library/ctype/ctype.o
 .comment       0x00000000       0x12 .obj/source/library/ctype/isalnum.o
 .comment       0x00000000       0x12 .obj/source/library/ctype/isalpha.o
 .comment       0x00000000       0x12 .obj/source/library/ctype/isascii.o
 .comment       0x00000000       0x12 .obj/source/library/ctype/isblank.o
 .comment       0x00000000       0x12 .obj/source/library/ctype/iscntrl.o
 .comment       0x00000000       0x12 .obj/source/library/ctype/isdigit.o
 .comment       0x00000000       0x12 .obj/source/library/ctype/isgraph.o
 .comment       0x00000000       0x12 .obj/source/library/ctype/islower.o
 .comment       0x00000000       0x12 .obj/source/library/ctype/isprint.o
 .comment       0x00000000       0x12 .obj/source/library/ctype/ispunct.o
 .comment       0x00000000       0x12 .obj/source/library/ctype/isspace.o
 .comment       0x00000000       0x12 .obj/source/library/ctype/isupper.o
 .comment       0x00000000       0x12 .obj/source/library/ctype/isxdigit.o
 .comment       0x00000000       0x12 .obj/source/library/ctype/toascii.o
 .comment       0x00000000       0x12 .obj/source/library/ctype/tolower.o
 .comment       0x00000000       0x12 .obj/source/library/ctype/toupper.o
 .comment       0x00000000       0x12 .obj/source/library/errno/errno.o
 .comment       0x00000000       0x12 .obj/source/library/errno/strerror.o
 .comment       0x00000000       0x12 .obj/source/library/exit/abort.o
 .comment       0x00000000       0x12 .obj/source/library/exit/assert.o
 .comment       0x00000000       0x12 .obj/source/library/exit/exit.o
 .comment       0x00000000       0x12 .obj/source/library/malloc/malloc.o
 .comment       0x00000000       0x12 .obj/source/library/stdlib/abs.o
 .comment       0x00000000       0x12 .obj/source/library/stdlib/atof.o
 .comment       0x00000000       0x12 .obj/source/library/stdlib/atoi.o
 .comment       0x00000000       0x12 .obj/source/library/stdlib/atol.o
 .comment       0x00000000       0x12 .obj/source/library/stdlib/atoll.o
 .comment       0x00000000       0x12 .obj/source/library/stdlib/bsearch.o
 .comment       0x00000000       0x12 .obj/source/library/stdlib/div.o
 .comment       0x00000000       0x12 .obj/source/library/stdlib/labs.o
 .comment       0x00000000       0x12 .obj/source/library/stdlib/ldiv.o
 .comment       0x00000000       0x12 .obj/source/library/stdlib/llabs.o
 .comment       0x00000000       0x12 .obj/source/library/stdlib/lldiv.o
 .comment       0x00000000       0x12 .obj/source/library/stdlib/qsort.o
 .comment       0x00000000       0x12 .obj/source/library/stdlib/rand.o
 .comment       0x00000000       0x12 .obj/source/library/stdlib/strntoimax.o
 .comment       0x00000000       0x12 .obj/source/library/stdlib/strntoumax.o
 .comment       0x00000000       0x12 .obj/source/library/stdlib/strtod.o
 .comment       0x00000000       0x12 .obj/source/library/stdlib/strtoimax.o
 .comment       0x00000000       0x12 .obj/source/library/stdlib/strtol.o
 .comment       0x00000000       0x12 .obj/source/library/stdlib/strtoll.o
 .comment       0x00000000       0x12 .obj/source/library/stdlib/strtoul.o
 .comment       0x00000000       0x12 .obj/source/library/stdlib/strtoull.o
 .comment       0x00000000       0x12 .obj/source/library/stdlib/strtoumax.o
 .comment       0x00000000       0x12 .obj/source/library/string/memchr.o
 .comment       0x00000000       0x12 .obj/source/library/string/memcmp.o
 .comment       0x00000000       0x12 .obj/source/library/string/memcpy.o
 .comment       0x00000000       0x12 .obj/source/library/string/memmove.o
 .comment       0x00000000       0x12 .obj/source/library/string/memscan.o
 .comment       0x00000000       0x12 .obj/source/library/string/memset.o
 .comment       0x00000000       0x12 .obj/source/library/string/strcasecmp.o
 .comment       0x00000000       0x12 .obj/source/library/string/strcat.o
 .comment       0x00000000       0x12 .obj/source/library/string/strchr.o
 .comment       0x00000000       0x12 .obj/source/library/string/strcmp.o
 .comment       0x00000000       0x12 .obj/source/library/string/strcoll.o
 .comment       0x00000000       0x12 .obj/source/library/string/strcpy.o
 .comment       0x00000000       0x12 .obj/source/library/string/strcspn.o
 .comment       0x00000000       0x12 .obj/source/library/string/strdup.o
 .comment       0x00000000       0x12 .obj/source/library/string/strlcat.o
 .comment       0x00000000       0x12 .obj/source/library/string/strlcpy.o
 .comment       0x00000000       0x12 .obj/source/library/string/strlen.o
 .comment       0x00000000       0x12 .obj/source/library/string/strncasecmp.o
 .comment       0x00000000       0x12 .obj/source/library/string/strncat.o
 .comment       0x00000000       0x12 .obj/source/library/string/strnchr.o
 .comment       0x00000000       0x12 .obj/source/library/string/strncmp.o
 .comment       0x00000000       0x12 .obj/source/library/string/strncpy.o
 .comment       0x00000000       0x12 .obj/source/library/string/strnicmp.o
 .comment       0x00000000       0x12 .obj/source/library/string/strnlen.o
 .comment       0x00000000       0x12 .obj/source/library/string/strnstr.o
 .comment       0x00000000       0x12 .obj/source/library/string/strpbrk.o
 .comment       0x00000000       0x12 .obj/source/library/string/strrchr.o
 .comment       0x00000000       0x12 .obj/source/library/string/strsep.o
 .comment       0x00000000       0x12 .obj/source/library/string/strspn.o
 .comment       0x00000000       0x12 .obj/source/library/string/strstr.o
 .comment       0x00000000       0x12 .obj/source/library/stdio/snprintf.o
 .comment       0x00000000       0x12 .obj/source/library/stdio/sprintf.o
 .comment       0x00000000       0x12 .obj/source/library/stdio/sscanf.o
 .comment       0x00000000       0x12 .obj/source/library/stdio/vsnprintf.o
 .comment       0x00000000       0x12 .obj/source/library/stdio/vsscanf.o
 .comment       0x00000000       0x12 .obj/source/library/math/acos.o
 .comment       0x00000000       0x12 .obj/source/library/math/acosf.o
 .comment       0x00000000       0x12 .obj/source/library/math/asin.o
 .comment       0x00000000       0x12 .obj/source/library/math/asinf.o
 .comment       0x00000000       0x12 .obj/source/library/math/atan.o
 .comment       0x00000000       0x12 .obj/source/library/math/atan2.o
 .comment       0x00000000       0x12 .obj/source/library/math/atan2f.o
 .comment       0x00000000       0x12 .obj/source/library/math/atanf.o
 .comment       0x00000000       0x12 .obj/source/library/math/ceil.o
 .comment       0x00000000       0x12 .obj/source/library/math/ceilf.o
 .comment       0x00000000       0x12 .obj/source/library/math/copysign.o
 .comment       0x00000000       0x12 .obj/source/library/math/copysignf.o
 .comment       0x00000000       0x12 .obj/source/library/math/cos.o
 .comment       0x00000000       0x12 .obj/source/library/math/cosf.o
 .comment       0x00000000       0x12 .obj/source/library/math/cosh.o
 .comment       0x00000000       0x12 .obj/source/library/math/coshf.o
 .comment       0x00000000       0x12 .obj/source/library/math/e_rem_pio2.o
 .comment       0x00000000       0x12 .obj/source/library/math/e_rem_pio2f.o
 .comment       0x00000000       0x12 .obj/source/library/math/exp.o
 .comment       0x00000000       0x12 .obj/source/library/math/expf.o
 .comment       0x00000000       0x12 .obj/source/library/math/expm1.o
 .comment       0x00000000       0x12 .obj/source/library/math/expm1f.o
 .comment       0x00000000       0x12 .obj/source/library/math/fabs.o
 .comment       0x00000000       0x12 .obj/source/library/math/fabsf.o
 .comment       0x00000000       0x12 .obj/source/library/math/floor.o
 .comment       0x00000000       0x12 .obj/source/library/math/floorf.o
 .comment       0x00000000       0x12 .obj/source/library/math/fmod.o
 .comment       0x00000000       0x12 .obj/source/library/math/fmodf.o
 .comment       0x00000000       0x12 .obj/source/library/math/frexp.o
 .comment       0x00000000       0x12 .obj/source/library/math/frexpf.o
 .comment       0x00000000       0x12 .obj/source/library/math/hypot.o
 .comment       0x00000000       0x12 .obj/source/library/math/hypotf.o
 .comment       0x00000000       0x12 .obj/source/library/math/k_cos.o
 .comment       0x00000000       0x12 .obj/source/library/math/k_cosf.o
 .comment       0x00000000       0x12 .obj/source/library/math/k_rem_pio2.o
 .comment       0x00000000       0x12 .obj/source/library/math/k_rem_pio2f.o
 .comment       0x00000000       0x12 .obj/source/library/math/k_sin.o
 .comment       0x00000000       0x12 .obj/source/library/math/k_sinf.o
 .comment       0x00000000       0x12 .obj/source/library/math/k_tan.o
 .comment       0x00000000       0x12 .obj/source/library/math/k_tanf.o
 .comment       0x00000000       0x12 .obj/source/library/math/log.o
 .comment       0x00000000       0x12 .obj/source/library/math/log10.o
 .comment       0x00000000       0x12 .obj/source/library/math/log10f.o
 .comment       0x00000000       0x12 .obj/source/library/math/logf.o
 .comment       0x00000000       0x12 .obj/source/library/math/modf.o
 .comment       0x00000000       0x12 .obj/source/library/math/modff.o
 .comment       0x00000000       0x12 .obj/source/library/math/pow.o
 .comment       0x00000000       0x12 .obj/source/library/math/powf.o
 .comment       0x00000000       0x12 .obj/source/library/math/scalbn.o
 .comment       0x00000000       0x12 .obj/source/library/math/scalbnf.o
 .comment       0x00000000       0x12 .obj/source/library/math/sin.o
 .comment       0x00000000       0x12 .obj/source/library/math/sinf.o
 .comment       0x00000000       0x12 .obj/source/library/math/sinh.o
 .comment       0x00000000       0x12 .obj/source/library/math/sinhf.o
 .comment       0x00000000       0x12 .obj/source/library/math/sqrt.o
 .comment       0x00000000       0x12 .obj/source/library/math/sqrtf.o
 .comment       0x00000000       0x12 .obj/source/library/math/tan.o
 .comment       0x00000000       0x12 .obj/source/library/math/tanf.o
 .comment       0x00000000       0x12 .obj/source/library/math/tanh.o
 .comment       0x00000000       0x12 .obj/source/library/math/tanhf.o
 .comment       0x00000000       0x12 .obj/source/graphic/color.o
 .comment       0x00000000       0x12 .obj/source/graphic/maps.o
 .comment       0x00000000       0x12 .obj/source/graphic/pixel.o
 .comment       0x00000000       0x12 .obj/source/graphic/rect.o
 .comment       0x00000000       0x12 .obj/source/graphic/surface.o
 .comment       0x00000000       0x12 .obj/source/graphic/maps/software/sw_blit.o
 .comment       0x00000000       0x12 .obj/source/graphic/maps/software/sw_blit_alpha.o
 .comment       0x00000000       0x12 .obj/source/graphic/maps/software/sw_blit_replace.o
 .comment       0x00000000       0x12 .obj/source/graphic/maps/software/sw_fill.o
 .comment       0x00000000       0x12 .obj/source/graphic/maps/software/sw_hline.o
 .comment       0x00000000       0x12 .obj/source/graphic/maps/software/sw_point.o
 .comment       0x00000000       0x12 .obj/source/graphic/maps/software/sw_rotate.o
 .comment       0x00000000       0x12 .obj/source/graphic/maps/software/sw_scale.o
 .comment       0x00000000       0x12 .obj/source/graphic/maps/software/sw_utils.o
 .comment       0x00000000       0x12 .obj/source/graphic/maps/software/sw_vline.o
 .comment       0x00000000       0x12 c:/yagarto-20121222/bin/../lib/gcc/arm-none-eabi/4.7.2\libgcc.a(bpabi.o)
 .comment       0x00000000       0x12 c:/yagarto-20121222/bin/../lib/gcc/arm-none-eabi/4.7.2\libgcc.a(_divdi3.o)
 .comment       0x00000000       0x12 c:/yagarto-20121222/bin/../lib/gcc/arm-none-eabi/4.7.2\libgcc.a(_udivdi3.o)
 .comment       0x00000000       0x12 c:/yagarto-20121222/bin/../lib/gcc/arm-none-eabi/4.7.2\libgcc.a(unwind-arm.o)
 .comment       0x00000000       0x12 c:/yagarto-20121222/bin/../lib/gcc/arm-none-eabi/4.7.2\libgcc.a(pr-support.o)

.ARM.attributes
                0x00000000       0x35
 .ARM.attributes
                0x00000000       0x25 .obj/source/startup/start.o
 .ARM.attributes
                0x00000025       0x25 .obj/source/arm/memcmp.o
 .ARM.attributes
                0x0000004a       0x25 .obj/source/arm/memcpy.o
 .ARM.attributes
                0x0000006f       0x25 .obj/source/arm/memmove.o
 .ARM.attributes
                0x00000094       0x25 .obj/source/arm/memset.o
 .ARM.attributes
                0x000000b9       0x25 .obj/source/arm/strcmp.o
 .ARM.attributes
                0x000000de       0x25 .obj/source/arm/strncmp.o
 .ARM.attributes
                0x00000103       0x3b .obj/source/main.o
 .ARM.attributes
                0x0000013e       0x3b .obj/source/tester-key-with-led.o
 .ARM.attributes
                0x00000179       0x3b .obj/source/hardware/hw-beep.o
 .ARM.attributes
                0x000001b4       0x3b .obj/source/hardware/hw-key.o
 .ARM.attributes
                0x000001ef       0x3b .obj/source/hardware/hw-led.o
 .ARM.attributes
                0x0000022a       0x3b .obj/source/hardware/s5p6818-alv.o
 .ARM.attributes
                0x00000265       0x3b .obj/source/hardware/s5p6818-clk.o
 .ARM.attributes
                0x000002a0       0x3b .obj/source/hardware/s5p6818-fb.o
 .ARM.attributes
                0x000002db       0x3b .obj/source/hardware/s5p6818-gpio.o
 .ARM.attributes
                0x00000316       0x3b .obj/source/hardware/s5p6818-irq.o
 .ARM.attributes
                0x00000351       0x3b .obj/source/hardware/s5p6818-pwm.o
 .ARM.attributes
                0x0000038c       0x3b .obj/source/hardware/s5p6818-rstcon.o
 .ARM.attributes
                0x000003c7       0x3b .obj/source/hardware/s5p6818-serial-stdio.o
 .ARM.attributes
                0x00000402       0x3b .obj/source/hardware/s5p6818-serial.o
 .ARM.attributes
                0x0000043d       0x3b .obj/source/hardware/s5p6818-tick-delay.o
 .ARM.attributes
                0x00000478       0x3b .obj/source/hardware/s5p6818-tick.o
 .ARM.attributes
                0x000004b3       0x3b .obj/source/hardware/s5p6818-timer.o
 .ARM.attributes
                0x000004ee       0x3b .obj/source/hardware/clk/clk-divider.o
 .ARM.attributes
                0x00000529       0x3b .obj/source/hardware/clk/clk-fixed-factor.o
 .ARM.attributes
                0x00000564       0x3b .obj/source/hardware/clk/clk-fixed.o
 .ARM.attributes
                0x0000059f       0x3b .obj/source/hardware/clk/clk-gate.o
 .ARM.attributes
                0x000005da       0x3b .obj/source/hardware/clk/clk-link.o
 .ARM.attributes
                0x00000615       0x3b .obj/source/hardware/clk/clk-mux.o
 .ARM.attributes
                0x00000650       0x3b .obj/source/hardware/clk/clk-pll.o
 .ARM.attributes
                0x0000068b       0x3b .obj/source/hardware/clk/clk.o
 .ARM.attributes
                0x000006c6       0x3b .obj/source/hardware/gpio/gpio.o
 .ARM.attributes
                0x00000701       0x3b .obj/source/hardware/interrupt/interrupt.o
 .ARM.attributes
                0x0000073c       0x3b .obj/source/hardware/pwm/pwm.o
 .ARM.attributes
                0x00000777       0x3b .obj/source/arm/cp15.o
 .ARM.attributes
                0x000007b2       0x3b .obj/source/library/ctype/ctype.o
 .ARM.attributes
                0x000007ed       0x3b .obj/source/library/ctype/isalnum.o
 .ARM.attributes
                0x00000828       0x3b .obj/source/library/ctype/isalpha.o
 .ARM.attributes
                0x00000863       0x3b .obj/source/library/ctype/isascii.o
 .ARM.attributes
                0x0000089e       0x3b .obj/source/library/ctype/isblank.o
 .ARM.attributes
                0x000008d9       0x3b .obj/source/library/ctype/iscntrl.o
 .ARM.attributes
                0x00000914       0x3b .obj/source/library/ctype/isdigit.o
 .ARM.attributes
                0x0000094f       0x3b .obj/source/library/ctype/isgraph.o
 .ARM.attributes
                0x0000098a       0x3b .obj/source/library/ctype/islower.o
 .ARM.attributes
                0x000009c5       0x3b .obj/source/library/ctype/isprint.o
 .ARM.attributes
                0x00000a00       0x3b .obj/source/library/ctype/ispunct.o
 .ARM.attributes
                0x00000a3b       0x3b .obj/source/library/ctype/isspace.o
 .ARM.attributes
                0x00000a76       0x3b .obj/source/library/ctype/isupper.o
 .ARM.attributes
                0x00000ab1       0x3b .obj/source/library/ctype/isxdigit.o
 .ARM.attributes
                0x00000aec       0x3b .obj/source/library/ctype/toascii.o
 .ARM.attributes
                0x00000b27       0x3b .obj/source/library/ctype/tolower.o
 .ARM.attributes
                0x00000b62       0x3b .obj/source/library/ctype/toupper.o
 .ARM.attributes
                0x00000b9d       0x3b .obj/source/library/errno/errno.o
 .ARM.attributes
                0x00000bd8       0x3b .obj/source/library/errno/strerror.o
 .ARM.attributes
                0x00000c13       0x3b .obj/source/library/exit/abort.o
 .ARM.attributes
                0x00000c4e       0x3b .obj/source/library/exit/assert.o
 .ARM.attributes
                0x00000c89       0x3b .obj/source/library/exit/exit.o
 .ARM.attributes
                0x00000cc4       0x3b .obj/source/library/malloc/malloc.o
 .ARM.attributes
                0x00000cff       0x3b .obj/source/library/stdlib/abs.o
 .ARM.attributes
                0x00000d3a       0x3b .obj/source/library/stdlib/atof.o
 .ARM.attributes
                0x00000d75       0x3b .obj/source/library/stdlib/atoi.o
 .ARM.attributes
                0x00000db0       0x3b .obj/source/library/stdlib/atol.o
 .ARM.attributes
                0x00000deb       0x3b .obj/source/library/stdlib/atoll.o
 .ARM.attributes
                0x00000e26       0x3b .obj/source/library/stdlib/bsearch.o
 .ARM.attributes
                0x00000e61       0x3b .obj/source/library/stdlib/div.o
 .ARM.attributes
                0x00000e9c       0x3b .obj/source/library/stdlib/labs.o
 .ARM.attributes
                0x00000ed7       0x3b .obj/source/library/stdlib/ldiv.o
 .ARM.attributes
                0x00000f12       0x3b .obj/source/library/stdlib/llabs.o
 .ARM.attributes
                0x00000f4d       0x3b .obj/source/library/stdlib/lldiv.o
 .ARM.attributes
                0x00000f88       0x3b .obj/source/library/stdlib/qsort.o
 .ARM.attributes
                0x00000fc3       0x3b .obj/source/library/stdlib/rand.o
 .ARM.attributes
                0x00000ffe       0x3b .obj/source/library/stdlib/strntoimax.o
 .ARM.attributes
                0x00001039       0x3b .obj/source/library/stdlib/strntoumax.o
 .ARM.attributes
                0x00001074       0x3b .obj/source/library/stdlib/strtod.o
 .ARM.attributes
                0x000010af       0x3b .obj/source/library/stdlib/strtoimax.o
 .ARM.attributes
                0x000010ea       0x3b .obj/source/library/stdlib/strtol.o
 .ARM.attributes
                0x00001125       0x3b .obj/source/library/stdlib/strtoll.o
 .ARM.attributes
                0x00001160       0x3b .obj/source/library/stdlib/strtoul.o
 .ARM.attributes
                0x0000119b       0x3b .obj/source/library/stdlib/strtoull.o
 .ARM.attributes
                0x000011d6       0x3b .obj/source/library/stdlib/strtoumax.o
 .ARM.attributes
                0x00001211       0x3b .obj/source/library/string/memchr.o
 .ARM.attributes
                0x0000124c       0x3b .obj/source/library/string/memcmp.o
 .ARM.attributes
                0x00001287       0x3b .obj/source/library/string/memcpy.o
 .ARM.attributes
                0x000012c2       0x3b .obj/source/library/string/memmove.o
 .ARM.attributes
                0x000012fd       0x3b .obj/source/library/string/memscan.o
 .ARM.attributes
                0x00001338       0x3b .obj/source/library/string/memset.o
 .ARM.attributes
                0x00001373       0x3b .obj/source/library/string/strcasecmp.o
 .ARM.attributes
                0x000013ae       0x3b .obj/source/library/string/strcat.o
 .ARM.attributes
                0x000013e9       0x3b .obj/source/library/string/strchr.o
 .ARM.attributes
                0x00001424       0x3b .obj/source/library/string/strcmp.o
 .ARM.attributes
                0x0000145f       0x3b .obj/source/library/string/strcoll.o
 .ARM.attributes
                0x0000149a       0x3b .obj/source/library/string/strcpy.o
 .ARM.attributes
                0x000014d5       0x3b .obj/source/library/string/strcspn.o
 .ARM.attributes
                0x00001510       0x3b .obj/source/library/string/strdup.o
 .ARM.attributes
                0x0000154b       0x3b .obj/source/library/string/strlcat.o
 .ARM.attributes
                0x00001586       0x3b .obj/source/library/string/strlcpy.o
 .ARM.attributes
                0x000015c1       0x3b .obj/source/library/string/strlen.o
 .ARM.attributes
                0x000015fc       0x3b .obj/source/library/string/strncasecmp.o
 .ARM.attributes
                0x00001637       0x3b .obj/source/library/string/strncat.o
 .ARM.attributes
                0x00001672       0x3b .obj/source/library/string/strnchr.o
 .ARM.attributes
                0x000016ad       0x3b .obj/source/library/string/strncmp.o
 .ARM.attributes
                0x000016e8       0x3b .obj/source/library/string/strncpy.o
 .ARM.attributes
                0x00001723       0x3b .obj/source/library/string/strnicmp.o
 .ARM.attributes
                0x0000175e       0x3b .obj/source/library/string/strnlen.o
 .ARM.attributes
                0x00001799       0x3b .obj/source/library/string/strnstr.o
 .ARM.attributes
                0x000017d4       0x3b .obj/source/library/string/strpbrk.o
 .ARM.attributes
                0x0000180f       0x3b .obj/source/library/string/strrchr.o
 .ARM.attributes
                0x0000184a       0x3b .obj/source/library/string/strsep.o
 .ARM.attributes
                0x00001885       0x3b .obj/source/library/string/strspn.o
 .ARM.attributes
                0x000018c0       0x3b .obj/source/library/string/strstr.o
 .ARM.attributes
                0x000018fb       0x3b .obj/source/library/stdio/snprintf.o
 .ARM.attributes
                0x00001936       0x3b .obj/source/library/stdio/sprintf.o
 .ARM.attributes
                0x00001971       0x3b .obj/source/library/stdio/sscanf.o
 .ARM.attributes
                0x000019ac       0x3b .obj/source/library/stdio/vsnprintf.o
 .ARM.attributes
                0x000019e7       0x3b .obj/source/library/stdio/vsscanf.o
 .ARM.attributes
                0x00001a22       0x3b .obj/source/library/math/acos.o
 .ARM.attributes
                0x00001a5d       0x3b .obj/source/library/math/acosf.o
 .ARM.attributes
                0x00001a98       0x3b .obj/source/library/math/asin.o
 .ARM.attributes
                0x00001ad3       0x3b .obj/source/library/math/asinf.o
 .ARM.attributes
                0x00001b0e       0x3b .obj/source/library/math/atan.o
 .ARM.attributes
                0x00001b49       0x3b .obj/source/library/math/atan2.o
 .ARM.attributes
                0x00001b84       0x3b .obj/source/library/math/atan2f.o
 .ARM.attributes
                0x00001bbf       0x3b .obj/source/library/math/atanf.o
 .ARM.attributes
                0x00001bfa       0x3b .obj/source/library/math/ceil.o
 .ARM.attributes
                0x00001c35       0x3b .obj/source/library/math/ceilf.o
 .ARM.attributes
                0x00001c70       0x3b .obj/source/library/math/copysign.o
 .ARM.attributes
                0x00001cab       0x3b .obj/source/library/math/copysignf.o
 .ARM.attributes
                0x00001ce6       0x3b .obj/source/library/math/cos.o
 .ARM.attributes
                0x00001d21       0x3b .obj/source/library/math/cosf.o
 .ARM.attributes
                0x00001d5c       0x3b .obj/source/library/math/cosh.o
 .ARM.attributes
                0x00001d97       0x3b .obj/source/library/math/coshf.o
 .ARM.attributes
                0x00001dd2       0x3b .obj/source/library/math/e_rem_pio2.o
 .ARM.attributes
                0x00001e0d       0x3b .obj/source/library/math/e_rem_pio2f.o
 .ARM.attributes
                0x00001e48       0x3b .obj/source/library/math/exp.o
 .ARM.attributes
                0x00001e83       0x3b .obj/source/library/math/expf.o
 .ARM.attributes
                0x00001ebe       0x3b .obj/source/library/math/expm1.o
 .ARM.attributes
                0x00001ef9       0x3b .obj/source/library/math/expm1f.o
 .ARM.attributes
                0x00001f34       0x3b .obj/source/library/math/fabs.o
 .ARM.attributes
                0x00001f6f       0x3b .obj/source/library/math/fabsf.o
 .ARM.attributes
                0x00001faa       0x3b .obj/source/library/math/floor.o
 .ARM.attributes
                0x00001fe5       0x3b .obj/source/library/math/floorf.o
 .ARM.attributes
                0x00002020       0x3b .obj/source/library/math/fmod.o
 .ARM.attributes
                0x0000205b       0x3b .obj/source/library/math/fmodf.o
 .ARM.attributes
                0x00002096       0x3b .obj/source/library/math/frexp.o
 .ARM.attributes
                0x000020d1       0x3b .obj/source/library/math/frexpf.o
 .ARM.attributes
                0x0000210c       0x3b .obj/source/library/math/hypot.o
 .ARM.attributes
                0x00002147       0x3b .obj/source/library/math/hypotf.o
 .ARM.attributes
                0x00002182       0x3b .obj/source/library/math/k_cos.o
 .ARM.attributes
                0x000021bd       0x3b .obj/source/library/math/k_cosf.o
 .ARM.attributes
                0x000021f8       0x3b .obj/source/library/math/k_rem_pio2.o
 .ARM.attributes
                0x00002233       0x3b .obj/source/library/math/k_rem_pio2f.o
 .ARM.attributes
                0x0000226e       0x3b .obj/source/library/math/k_sin.o
 .ARM.attributes
                0x000022a9       0x3b .obj/source/library/math/k_sinf.o
 .ARM.attributes
                0x000022e4       0x3b .obj/source/library/math/k_tan.o
 .ARM.attributes
                0x0000231f       0x3b .obj/source/library/math/k_tanf.o
 .ARM.attributes
                0x0000235a       0x3b .obj/source/library/math/log.o
 .ARM.attributes
                0x00002395       0x3b .obj/source/library/math/log10.o
 .ARM.attributes
                0x000023d0       0x3b .obj/source/library/math/log10f.o
 .ARM.attributes
                0x0000240b       0x3b .obj/source/library/math/logf.o
 .ARM.attributes
                0x00002446       0x3b .obj/source/library/math/modf.o
 .ARM.attributes
                0x00002481       0x3b .obj/source/library/math/modff.o
 .ARM.attributes
                0x000024bc       0x3b .obj/source/library/math/pow.o
 .ARM.attributes
                0x000024f7       0x3b .obj/source/library/math/powf.o
 .ARM.attributes
                0x00002532       0x3b .obj/source/library/math/scalbn.o
 .ARM.attributes
                0x0000256d       0x3b .obj/source/library/math/scalbnf.o
 .ARM.attributes
                0x000025a8       0x3b .obj/source/library/math/sin.o
 .ARM.attributes
                0x000025e3       0x3b .obj/source/library/math/sinf.o
 .ARM.attributes
                0x0000261e       0x3b .obj/source/library/math/sinh.o
 .ARM.attributes
                0x00002659       0x3b .obj/source/library/math/sinhf.o
 .ARM.attributes
                0x00002694       0x3b .obj/source/library/math/sqrt.o
 .ARM.attributes
                0x000026cf       0x3b .obj/source/library/math/sqrtf.o
 .ARM.attributes
                0x0000270a       0x3b .obj/source/library/math/tan.o
 .ARM.attributes
                0x00002745       0x3b .obj/source/library/math/tanf.o
 .ARM.attributes
                0x00002780       0x3b .obj/source/library/math/tanh.o
 .ARM.attributes
                0x000027bb       0x3b .obj/source/library/math/tanhf.o
 .ARM.attributes
                0x000027f6       0x3b .obj/source/graphic/color.o
 .ARM.attributes
                0x00002831       0x3b .obj/source/graphic/maps.o
 .ARM.attributes
                0x0000286c       0x3b .obj/source/graphic/pixel.o
 .ARM.attributes
                0x000028a7       0x3b .obj/source/graphic/rect.o
 .ARM.attributes
                0x000028e2       0x3b .obj/source/graphic/surface.o
 .ARM.attributes
                0x0000291d       0x3b .obj/source/graphic/maps/software/sw_blit.o
 .ARM.attributes
                0x00002958       0x3b .obj/source/graphic/maps/software/sw_blit_alpha.o
 .ARM.attributes
                0x00002993       0x3b .obj/source/graphic/maps/software/sw_blit_replace.o
 .ARM.attributes
                0x000029ce       0x3b .obj/source/graphic/maps/software/sw_fill.o
 .ARM.attributes
                0x00002a09       0x3b .obj/source/graphic/maps/software/sw_hline.o
 .ARM.attributes
                0x00002a44       0x3b .obj/source/graphic/maps/software/sw_point.o
 .ARM.attributes
                0x00002a7f       0x3b .obj/source/graphic/maps/software/sw_rotate.o
 .ARM.attributes
                0x00002aba       0x3b .obj/source/graphic/maps/software/sw_scale.o
 .ARM.attributes
                0x00002af5       0x3b .obj/source/graphic/maps/software/sw_utils.o
 .ARM.attributes
                0x00002b30       0x3b .obj/source/graphic/maps/software/sw_vline.o
 .ARM.attributes
                0x00002b6b       0x18 c:/yagarto-20121222/bin/../lib/gcc/arm-none-eabi/4.7.2\libgcc.a(_udivsi3.o)
 .ARM.attributes
                0x00002b83       0x18 c:/yagarto-20121222/bin/../lib/gcc/arm-none-eabi/4.7.2\libgcc.a(_divsi3.o)
 .ARM.attributes
                0x00002b9b       0x18 c:/yagarto-20121222/bin/../lib/gcc/arm-none-eabi/4.7.2\libgcc.a(_dvmd_tls.o)
 .ARM.attributes
                0x00002bb3       0x18 c:/yagarto-20121222/bin/../lib/gcc/arm-none-eabi/4.7.2\libgcc.a(_aeabi_ldivmod.o)
 .ARM.attributes
                0x00002bcb       0x18 c:/yagarto-20121222/bin/../lib/gcc/arm-none-eabi/4.7.2\libgcc.a(_aeabi_uldivmod.o)
 .ARM.attributes
                0x00002be3       0x30 c:/yagarto-20121222/bin/../lib/gcc/arm-none-eabi/4.7.2\libgcc.a(bpabi.o)
 .ARM.attributes
                0x00002c13       0x30 c:/yagarto-20121222/bin/../lib/gcc/arm-none-eabi/4.7.2\libgcc.a(_divdi3.o)
 .ARM.attributes
                0x00002c43       0x30 c:/yagarto-20121222/bin/../lib/gcc/arm-none-eabi/4.7.2\libgcc.a(_udivdi3.o)
 .ARM.attributes
                0x00002c73       0x30 c:/yagarto-20121222/bin/../lib/gcc/arm-none-eabi/4.7.2\libgcc.a(unwind-arm.o)
 .ARM.attributes
                0x00002ca3       0x1c c:/yagarto-20121222/bin/../lib/gcc/arm-none-eabi/4.7.2\libgcc.a(libunwind.o)
 .ARM.attributes
                0x00002cbf       0x30 c:/yagarto-20121222/bin/../lib/gcc/arm-none-eabi/4.7.2\libgcc.a(pr-support.o)
 .ARM.attributes
                0x00002cef       0x18 c:/yagarto-20121222/bin/../lib/gcc/arm-none-eabi/4.7.2\libgcc.a(_clzsi2.o)

.debug_abbrev   0x00000000     0xd7b0
 *(.debug_abbrev)
 .debug_abbrev  0x00000000       0x14 .obj/source/startup/start.o
 .debug_abbrev  0x00000014       0x14 .obj/source/arm/memcmp.o
 .debug_abbrev  0x00000028       0x14 .obj/source/arm/memcpy.o
 .debug_abbrev  0x0000003c       0x14 .obj/source/arm/memmove.o
 .debug_abbrev  0x00000050       0x14 .obj/source/arm/memset.o
 .debug_abbrev  0x00000064       0x14 .obj/source/arm/strcmp.o
 .debug_abbrev  0x00000078       0x14 .obj/source/arm/strncmp.o
 .debug_abbrev  0x0000008c       0xcd .obj/source/main.o
 .debug_abbrev  0x00000159      0x2cf .obj/source/tester-key-with-led.o
 .debug_abbrev  0x00000428       0xbd .obj/source/hardware/hw-beep.o
 .debug_abbrev  0x000004e5      0x186 .obj/source/hardware/hw-key.o
 .debug_abbrev  0x0000066b       0xf5 .obj/source/hardware/hw-led.o
 .debug_abbrev  0x00000760      0x260 .obj/source/hardware/s5p6818-alv.o
 .debug_abbrev  0x000009c0      0x2b8 .obj/source/hardware/s5p6818-clk.o
 .debug_abbrev  0x00000c78      0x3c0 .obj/source/hardware/s5p6818-fb.o
 .debug_abbrev  0x00001038      0x308 .obj/source/hardware/s5p6818-gpio.o
 .debug_abbrev  0x00001340      0x373 .obj/source/hardware/s5p6818-irq.o
 .debug_abbrev  0x000016b3      0x2ac .obj/source/hardware/s5p6818-pwm.o
 .debug_abbrev  0x0000195f      0x169 .obj/source/hardware/s5p6818-rstcon.o
 .debug_abbrev  0x00001ac8      0x118 .obj/source/hardware/s5p6818-serial-stdio.o
 .debug_abbrev  0x00001be0      0x320 .obj/source/hardware/s5p6818-serial.o
 .debug_abbrev  0x00001f00      0x153 .obj/source/hardware/s5p6818-tick-delay.o
 .debug_abbrev  0x00002053      0x1b3 .obj/source/hardware/s5p6818-tick.o
 .debug_abbrev  0x00002206      0x214 .obj/source/hardware/s5p6818-timer.o
 .debug_abbrev  0x0000241a      0x278 .obj/source/hardware/clk/clk-divider.o
 .debug_abbrev  0x00002692      0x1e7 .obj/source/hardware/clk/clk-fixed-factor.o
 .debug_abbrev  0x00002879      0x1be .obj/source/hardware/clk/clk-fixed.o
 .debug_abbrev  0x00002a37      0x266 .obj/source/hardware/clk/clk-gate.o
 .debug_abbrev  0x00002c9d      0x1be .obj/source/hardware/clk/clk-link.o
 .debug_abbrev  0x00002e5b      0x26e .obj/source/hardware/clk/clk-mux.o
 .debug_abbrev  0x000030c9      0x1f9 .obj/source/hardware/clk/clk-pll.o
 .debug_abbrev  0x000032c2      0x2bd .obj/source/hardware/clk/clk.o
 .debug_abbrev  0x0000357f      0x2c0 .obj/source/hardware/gpio/gpio.o
 .debug_abbrev  0x0000383f      0x2bd .obj/source/hardware/interrupt/interrupt.o
 .debug_abbrev  0x00003afc      0x25c .obj/source/hardware/pwm/pwm.o
 .debug_abbrev  0x00003d58      0x19a .obj/source/arm/cp15.o
 .debug_abbrev  0x00003ef2       0x45 .obj/source/library/ctype/ctype.o
 .debug_abbrev  0x00003f37       0x7b .obj/source/library/ctype/isalnum.o
 .debug_abbrev  0x00003fb2       0x7b .obj/source/library/ctype/isalpha.o
 .debug_abbrev  0x0000402d       0x4a .obj/source/library/ctype/isascii.o
 .debug_abbrev  0x00004077       0x4a .obj/source/library/ctype/isblank.o
 .debug_abbrev  0x000040c1       0x7b .obj/source/library/ctype/iscntrl.o
 .debug_abbrev  0x0000413c       0x7b .obj/source/library/ctype/isdigit.o
 .debug_abbrev  0x000041b7       0x7b .obj/source/library/ctype/isgraph.o
 .debug_abbrev  0x00004232       0x7b .obj/source/library/ctype/islower.o
 .debug_abbrev  0x000042ad       0x7b .obj/source/library/ctype/isprint.o
 .debug_abbrev  0x00004328       0x7b .obj/source/library/ctype/ispunct.o
 .debug_abbrev  0x000043a3       0x7b .obj/source/library/ctype/isspace.o
 .debug_abbrev  0x0000441e       0x7b .obj/source/library/ctype/isupper.o
 .debug_abbrev  0x00004499       0x7b .obj/source/library/ctype/isxdigit.o
 .debug_abbrev  0x00004514       0x4a .obj/source/library/ctype/toascii.o
 .debug_abbrev  0x0000455e       0x7b .obj/source/library/ctype/tolower.o
 .debug_abbrev  0x000045d9       0x7b .obj/source/library/ctype/toupper.o
 .debug_abbrev  0x00004654       0x58 .obj/source/library/errno/errno.o
 .debug_abbrev  0x000046ac       0x8c .obj/source/library/errno/strerror.o
 .debug_abbrev  0x00004738       0x2c .obj/source/library/exit/abort.o
 .debug_abbrev  0x00004764       0x63 .obj/source/library/exit/assert.o
 .debug_abbrev  0x000047c7       0x48 .obj/source/library/exit/exit.o
 .debug_abbrev  0x0000480f      0x45e .obj/source/library/malloc/malloc.o
 .debug_abbrev  0x00004c6d       0x53 .obj/source/library/stdlib/abs.o
 .debug_abbrev  0x00004cc0       0x9b .obj/source/library/stdlib/atof.o
 .debug_abbrev  0x00004d5b       0x9b .obj/source/library/stdlib/atoi.o
 .debug_abbrev  0x00004df6       0x9b .obj/source/library/stdlib/atol.o
 .debug_abbrev  0x00004e91       0x9b .obj/source/library/stdlib/atoll.o
 .debug_abbrev  0x00004f2c       0xda .obj/source/library/stdlib/bsearch.o
 .debug_abbrev  0x00005006       0x8b .obj/source/library/stdlib/div.o
 .debug_abbrev  0x00005091       0x53 .obj/source/library/stdlib/labs.o
 .debug_abbrev  0x000050e4       0x8b .obj/source/library/stdlib/ldiv.o
 .debug_abbrev  0x0000516f       0x53 .obj/source/library/stdlib/llabs.o
 .debug_abbrev  0x000051c2       0x9a .obj/source/library/stdlib/lldiv.o
 .debug_abbrev  0x0000525c      0x1d8 .obj/source/library/stdlib/qsort.o
 .debug_abbrev  0x00005434      0x14b .obj/source/library/stdlib/rand.o
 .debug_abbrev  0x0000557f       0xb5 .obj/source/library/stdlib/strntoimax.o
 .debug_abbrev  0x00005634      0x141 .obj/source/library/stdlib/strntoumax.o
 .debug_abbrev  0x00005775       0xfc .obj/source/library/stdlib/strtod.o
 .debug_abbrev  0x00005871      0x109 .obj/source/library/stdlib/strtoimax.o
 .debug_abbrev  0x0000597a       0xfc .obj/source/library/stdlib/strtol.o
 .debug_abbrev  0x00005a76       0xfc .obj/source/library/stdlib/strtoll.o
 .debug_abbrev  0x00005b72       0xfc .obj/source/library/stdlib/strtoul.o
 .debug_abbrev  0x00005c6e       0xfc .obj/source/library/stdlib/strtoull.o
 .debug_abbrev  0x00005d6a      0x109 .obj/source/library/stdlib/strtoumax.o
 .debug_abbrev  0x00005e73       0x8d .obj/source/library/string/memchr.o
 .debug_abbrev  0x00005f00       0x84 .obj/source/library/string/memcmp.o
 .debug_abbrev  0x00005f84       0x9a .obj/source/library/string/memcpy.o
 .debug_abbrev  0x0000601e       0x9a .obj/source/library/string/memmove.o
 .debug_abbrev  0x000060b8       0x90 .obj/source/library/string/memscan.o
 .debug_abbrev  0x00006148       0x8e .obj/source/library/string/memset.o
 .debug_abbrev  0x000061d6       0x99 .obj/source/library/string/strcasecmp.o
 .debug_abbrev  0x0000626f       0x83 .obj/source/library/string/strcat.o
 .debug_abbrev  0x000062f2       0x65 .obj/source/library/string/strchr.o
 .debug_abbrev  0x00006357       0x72 .obj/source/library/string/strcmp.o
 .debug_abbrev  0x000063c9       0x99 .obj/source/library/string/strcoll.o
 .debug_abbrev  0x00006462       0x83 .obj/source/library/string/strcpy.o
 .debug_abbrev  0x000064e5       0xac .obj/source/library/string/strcspn.o
 .debug_abbrev  0x00006591       0xe3 .obj/source/library/string/strdup.o
 .debug_abbrev  0x00006674      0x10d .obj/source/library/string/strlcat.o
 .debug_abbrev  0x00006781       0xef .obj/source/library/string/strlcpy.o
 .debug_abbrev  0x00006870       0x81 .obj/source/library/string/strlen.o
 .debug_abbrev  0x000068f1       0xa6 .obj/source/library/string/strncasecmp.o
 .debug_abbrev  0x00006997       0x90 .obj/source/library/string/strncat.o
 .debug_abbrev  0x00006a27       0x72 .obj/source/library/string/strnchr.o
 .debug_abbrev  0x00006a99       0x7f .obj/source/library/string/strncmp.o
 .debug_abbrev  0x00006b18       0x90 .obj/source/library/string/strncpy.o
 .debug_abbrev  0x00006ba8       0xbd .obj/source/library/string/strnicmp.o
 .debug_abbrev  0x00006c65       0x81 .obj/source/library/string/strnlen.o
 .debug_abbrev  0x00006ce6       0xc6 .obj/source/library/string/strnstr.o
 .debug_abbrev  0x00006dac       0x90 .obj/source/library/string/strpbrk.o
 .debug_abbrev  0x00006e3c       0xb2 .obj/source/library/string/strrchr.o
 .debug_abbrev  0x00006eee       0xb4 .obj/source/library/string/strsep.o
 .debug_abbrev  0x00006fa2       0x9f .obj/source/library/string/strspn.o
 .debug_abbrev  0x00007041       0xc6 .obj/source/library/string/strstr.o
 .debug_abbrev  0x00007107       0xe9 .obj/source/library/stdio/snprintf.o
 .debug_abbrev  0x000071f0       0xe9 .obj/source/library/stdio/sprintf.o
 .debug_abbrev  0x000072d9       0xe9 .obj/source/library/stdio/sscanf.o
 .debug_abbrev  0x000073c2      0x2fc .obj/source/library/stdio/vsnprintf.o
 .debug_abbrev  0x000076be      0x20c .obj/source/library/stdio/vsscanf.o
 .debug_abbrev  0x000078ca      0x101 .obj/source/library/math/acos.o
 .debug_abbrev  0x000079cb       0x9f .obj/source/library/math/acosf.o
 .debug_abbrev  0x00007a6a      0x101 .obj/source/library/math/asin.o
 .debug_abbrev  0x00007b6b       0xd1 .obj/source/library/math/asinf.o
 .debug_abbrev  0x00007c3c      0x12f .obj/source/library/math/atan.o
 .debug_abbrev  0x00007d6b      0x153 .obj/source/library/math/atan2.o
 .debug_abbrev  0x00007ebe      0x11a .obj/source/library/math/atan2f.o
 .debug_abbrev  0x00007fd8       0xf6 .obj/source/library/math/atanf.o
 .debug_abbrev  0x000080ce       0xfa .obj/source/library/math/ceil.o
 .debug_abbrev  0x000081c8       0xc6 .obj/source/library/math/ceilf.o
 .debug_abbrev  0x0000828e       0xd7 .obj/source/library/math/copysign.o
 .debug_abbrev  0x00008365       0xa1 .obj/source/library/math/copysignf.o
 .debug_abbrev  0x00008406      0x14d .obj/source/library/math/cos.o
 .debug_abbrev  0x00008553       0xf1 .obj/source/library/math/cosf.o
 .debug_abbrev  0x00008644      0x12d .obj/source/library/math/cosh.o
 .debug_abbrev  0x00008771       0xdf .obj/source/library/math/coshf.o
 .debug_abbrev  0x00008850      0x16f .obj/source/library/math/e_rem_pio2.o
 .debug_abbrev  0x000089bf      0x130 .obj/source/library/math/e_rem_pio2f.o
 .debug_abbrev  0x00008aef      0x13a .obj/source/library/math/exp.o
 .debug_abbrev  0x00008c29       0xf2 .obj/source/library/math/expf.o
 .debug_abbrev  0x00008d1b      0x105 .obj/source/library/math/expm1.o
 .debug_abbrev  0x00008e20       0xf4 .obj/source/library/math/expm1f.o
 .debug_abbrev  0x00008f14       0xac .obj/source/library/math/fabs.o
 .debug_abbrev  0x00008fc0       0x6f .obj/source/library/math/fabsf.o
 .debug_abbrev  0x0000902f       0xfa .obj/source/library/math/floor.o
 .debug_abbrev  0x00009129       0xb7 .obj/source/library/math/floorf.o
 .debug_abbrev  0x000091e0       0xff .obj/source/library/math/fmod.o
 .debug_abbrev  0x000092df       0xa8 .obj/source/library/math/fmodf.o
 .debug_abbrev  0x00009387      0x10c .obj/source/library/math/frexp.o
 .debug_abbrev  0x00009493       0xda .obj/source/library/math/frexpf.o
 .debug_abbrev  0x0000956d       0xf2 .obj/source/library/math/hypot.o
 .debug_abbrev  0x0000965f       0x7c .obj/source/library/math/hypotf.o
 .debug_abbrev  0x000096db       0x89 .obj/source/library/math/k_cos.o
 .debug_abbrev  0x00009764       0x89 .obj/source/library/math/k_cosf.o
 .debug_abbrev  0x000097ed      0x14d .obj/source/library/math/k_rem_pio2.o
 .debug_abbrev  0x0000993a      0x14d .obj/source/library/math/k_rem_pio2f.o
 .debug_abbrev  0x00009a87       0xa7 .obj/source/library/math/k_sin.o
 .debug_abbrev  0x00009b2e       0x89 .obj/source/library/math/k_sinf.o
 .debug_abbrev  0x00009bb7       0xf4 .obj/source/library/math/k_tan.o
 .debug_abbrev  0x00009cab       0xa8 .obj/source/library/math/k_tanf.o
 .debug_abbrev  0x00009d53       0xf8 .obj/source/library/math/log.o
 .debug_abbrev  0x00009e4b       0xf8 .obj/source/library/math/log10.o
 .debug_abbrev  0x00009f43       0xe9 .obj/source/library/math/log10f.o
 .debug_abbrev  0x0000a02c       0xe7 .obj/source/library/math/logf.o
 .debug_abbrev  0x0000a113      0x115 .obj/source/library/math/modf.o
 .debug_abbrev  0x0000a228      0x101 .obj/source/library/math/modff.o
 .debug_abbrev  0x0000a329      0x169 .obj/source/library/math/pow.o
 .debug_abbrev  0x0000a492      0x14d .obj/source/library/math/powf.o
 .debug_abbrev  0x0000a5df      0x12a .obj/source/library/math/scalbn.o
 .debug_abbrev  0x0000a709       0xeb .obj/source/library/math/scalbnf.o
 .debug_abbrev  0x0000a7f4      0x14d .obj/source/library/math/sin.o
 .debug_abbrev  0x0000a941       0xf1 .obj/source/library/math/sinf.o
 .debug_abbrev  0x0000aa32      0x12d .obj/source/library/math/sinh.o
 .debug_abbrev  0x0000ab5f       0xdf .obj/source/library/math/sinhf.o
 .debug_abbrev  0x0000ac3e       0xfa .obj/source/library/math/sqrt.o
 .debug_abbrev  0x0000ad38       0xe6 .obj/source/library/math/sqrtf.o
 .debug_abbrev  0x0000ae1e      0x13a .obj/source/library/math/tan.o
 .debug_abbrev  0x0000af58       0xf1 .obj/source/library/math/tanf.o
 .debug_abbrev  0x0000b049      0x120 .obj/source/library/math/tanh.o
 .debug_abbrev  0x0000b169      0x108 .obj/source/library/math/tanhf.o
 .debug_abbrev  0x0000b271      0x276 .obj/source/graphic/color.o
 .debug_abbrev  0x0000b4e7       0xd6 .obj/source/graphic/maps.o
 .debug_abbrev  0x0000b5bd      0x158 .obj/source/graphic/pixel.o
 .debug_abbrev  0x0000b715      0x288 .obj/source/graphic/rect.o
 .debug_abbrev  0x0000b99d      0x278 .obj/source/graphic/surface.o
 .debug_abbrev  0x0000bc15      0x169 .obj/source/graphic/maps/software/sw_blit.o
 .debug_abbrev  0x0000bd7e      0x1a9 .obj/source/graphic/maps/software/sw_blit_alpha.o
 .debug_abbrev  0x0000bf27      0x214 .obj/source/graphic/maps/software/sw_blit_replace.o
 .debug_abbrev  0x0000c13b      0x231 .obj/source/graphic/maps/software/sw_fill.o
 .debug_abbrev  0x0000c36c       0xf2 .obj/source/graphic/maps/software/sw_hline.o
 .debug_abbrev  0x0000c45e      0x14e .obj/source/graphic/maps/software/sw_point.o
 .debug_abbrev  0x0000c5ac      0x21e .obj/source/graphic/maps/software/sw_rotate.o
 .debug_abbrev  0x0000c7ca      0x1b6 .obj/source/graphic/maps/software/sw_scale.o
 .debug_abbrev  0x0000c980      0x247 .obj/source/graphic/maps/software/sw_utils.o
 .debug_abbrev  0x0000cbc7       0xf2 .obj/source/graphic/maps/software/sw_vline.o
 .debug_abbrev  0x0000ccb9       0x14 c:/yagarto-20121222/bin/../lib/gcc/arm-none-eabi/4.7.2\libgcc.a(_udivsi3.o)
 .debug_abbrev  0x0000cccd       0x14 c:/yagarto-20121222/bin/../lib/gcc/arm-none-eabi/4.7.2\libgcc.a(_divsi3.o)
 .debug_abbrev  0x0000cce1       0x14 c:/yagarto-20121222/bin/../lib/gcc/arm-none-eabi/4.7.2\libgcc.a(_dvmd_tls.o)
 .debug_abbrev  0x0000ccf5       0x14 c:/yagarto-20121222/bin/../lib/gcc/arm-none-eabi/4.7.2\libgcc.a(_aeabi_ldivmod.o)
 .debug_abbrev  0x0000cd09       0x14 c:/yagarto-20121222/bin/../lib/gcc/arm-none-eabi/4.7.2\libgcc.a(_aeabi_uldivmod.o)
 .debug_abbrev  0x0000cd1d       0xb7 c:/yagarto-20121222/bin/../lib/gcc/arm-none-eabi/4.7.2\libgcc.a(bpabi.o)
 .debug_abbrev  0x0000cdd4      0x165 c:/yagarto-20121222/bin/../lib/gcc/arm-none-eabi/4.7.2\libgcc.a(_divdi3.o)
 .debug_abbrev  0x0000cf39      0x154 c:/yagarto-20121222/bin/../lib/gcc/arm-none-eabi/4.7.2\libgcc.a(_udivdi3.o)
 .debug_abbrev  0x0000d08d      0x48f c:/yagarto-20121222/bin/../lib/gcc/arm-none-eabi/4.7.2\libgcc.a(unwind-arm.o)
 .debug_abbrev  0x0000d51c       0x14 c:/yagarto-20121222/bin/../lib/gcc/arm-none-eabi/4.7.2\libgcc.a(libunwind.o)
 .debug_abbrev  0x0000d530      0x26c c:/yagarto-20121222/bin/../lib/gcc/arm-none-eabi/4.7.2\libgcc.a(pr-support.o)
 .debug_abbrev  0x0000d79c       0x14 c:/yagarto-20121222/bin/../lib/gcc/arm-none-eabi/4.7.2\libgcc.a(_clzsi2.o)

.debug_info     0x00000000    0x35871
 *(.debug_info)
 .debug_info    0x00000000       0xb5 .obj/source/startup/start.o
 .debug_info    0x000000b5       0xb2 .obj/source/arm/memcmp.o
 .debug_info    0x00000167       0xb2 .obj/source/arm/memcpy.o
 .debug_info    0x00000219       0xb3 .obj/source/arm/memmove.o
 .debug_info    0x000002cc       0xb2 .obj/source/arm/memset.o
 .debug_info    0x0000037e       0xb2 .obj/source/arm/strcmp.o
 .debug_info    0x00000430       0xb3 .obj/source/arm/strncmp.o
 .debug_info    0x000004e3      0x1fc .obj/source/main.o
 .debug_info    0x000006df     0x2108 .obj/source/tester-key-with-led.o
 .debug_info    0x000027e7      0x1d5 .obj/source/hardware/hw-beep.o
 .debug_info    0x000029bc      0x384 .obj/source/hardware/hw-key.o
 .debug_info    0x00002d40      0x353 .obj/source/hardware/hw-led.o
 .debug_info    0x00003093      0xb11 .obj/source/hardware/s5p6818-alv.o
 .debug_info    0x00003ba4     0x12f1 .obj/source/hardware/s5p6818-clk.o
 .debug_info    0x00004e95     0x2db6 .obj/source/hardware/s5p6818-fb.o
 .debug_info    0x00007c4b     0x11ef .obj/source/hardware/s5p6818-gpio.o
 .debug_info    0x00008e3a     0x19a1 .obj/source/hardware/s5p6818-irq.o
 .debug_info    0x0000a7db      0xae3 .obj/source/hardware/s5p6818-pwm.o
 .debug_info    0x0000b2be      0x327 .obj/source/hardware/s5p6818-rstcon.o
 .debug_info    0x0000b5e5      0x21d .obj/source/hardware/s5p6818-serial-stdio.o
 .debug_info    0x0000b802      0xc93 .obj/source/hardware/s5p6818-serial.o
 .debug_info    0x0000c495      0x24c .obj/source/hardware/s5p6818-tick-delay.o
 .debug_info    0x0000c6e1      0x2eb .obj/source/hardware/s5p6818-tick.o
 .debug_info    0x0000c9cc      0x7be .obj/source/hardware/s5p6818-timer.o
 .debug_info    0x0000d18a      0x655 .obj/source/hardware/clk/clk-divider.o
 .debug_info    0x0000d7df      0x517 .obj/source/hardware/clk/clk-fixed-factor.o
 .debug_info    0x0000dcf6      0x4ee .obj/source/hardware/clk/clk-fixed.o
 .debug_info    0x0000e1e4      0x62a .obj/source/hardware/clk/clk-gate.o
 .debug_info    0x0000e80e      0x4ee .obj/source/hardware/clk/clk-link.o
 .debug_info    0x0000ecfc      0x69b .obj/source/hardware/clk/clk-mux.o
 .debug_info    0x0000f397      0x58d .obj/source/hardware/clk/clk-pll.o
 .debug_info    0x0000f924     0x13bb .obj/source/hardware/clk/clk.o
 .debug_info    0x00010cdf     0x1110 .obj/source/hardware/gpio/gpio.o
 .debug_info    0x00011def      0x8de .obj/source/hardware/interrupt/interrupt.o
 .debug_info    0x000126cd      0x654 .obj/source/hardware/pwm/pwm.o
 .debug_info    0x00012d21      0x9d8 .obj/source/arm/cp15.o
 .debug_info    0x000136f9       0x54 .obj/source/library/ctype/ctype.o
 .debug_info    0x0001374d       0x7c .obj/source/library/ctype/isalnum.o
 .debug_info    0x000137c9       0x7c .obj/source/library/ctype/isalpha.o
 .debug_info    0x00013845       0x58 .obj/source/library/ctype/isascii.o
 .debug_info    0x0001389d       0x58 .obj/source/library/ctype/isblank.o
 .debug_info    0x000138f5       0x7c .obj/source/library/ctype/iscntrl.o
 .debug_info    0x00013971       0x7c .obj/source/library/ctype/isdigit.o
 .debug_info    0x000139ed       0x7c .obj/source/library/ctype/isgraph.o
 .debug_info    0x00013a69       0x7c .obj/source/library/ctype/islower.o
 .debug_info    0x00013ae5       0x7c .obj/source/library/ctype/isprint.o
 .debug_info    0x00013b61       0x7c .obj/source/library/ctype/ispunct.o
 .debug_info    0x00013bdd       0x7c .obj/source/library/ctype/isspace.o
 .debug_info    0x00013c59       0x7c .obj/source/library/ctype/isupper.o
 .debug_info    0x00013cd5       0x7c .obj/source/library/ctype/isxdigit.o
 .debug_info    0x00013d51       0x58 .obj/source/library/ctype/toascii.o
 .debug_info    0x00013da9       0x7d .obj/source/library/ctype/tolower.o
 .debug_info    0x00013e26       0x7d .obj/source/library/ctype/toupper.o
 .debug_info    0x00013ea3       0x62 .obj/source/library/errno/errno.o
 .debug_info    0x00013f05      0x141 .obj/source/library/errno/strerror.o
 .debug_info    0x00014046       0x3b .obj/source/library/exit/abort.o
 .debug_info    0x00014081       0x8d .obj/source/library/exit/assert.o
 .debug_info    0x0001410e       0x54 .obj/source/library/exit/exit.o
 .debug_info    0x00014162     0x342b .obj/source/library/malloc/malloc.o
 .debug_info    0x0001758d       0x8c .obj/source/library/stdlib/abs.o
 .debug_info    0x00017619       0xeb .obj/source/library/stdlib/atof.o
 .debug_info    0x00017704       0xee .obj/source/library/stdlib/atoi.o
 .debug_info    0x000177f2       0xee .obj/source/library/stdlib/atol.o
 .debug_info    0x000178e0       0xee .obj/source/library/stdlib/atoll.o
 .debug_info    0x000179ce      0x154 .obj/source/library/stdlib/bsearch.o
 .debug_info    0x00017b22       0xce .obj/source/library/stdlib/div.o
 .debug_info    0x00017bf0       0x8c .obj/source/library/stdlib/labs.o
 .debug_info    0x00017c7c       0xce .obj/source/library/stdlib/ldiv.o
 .debug_info    0x00017d4a       0x8d .obj/source/library/stdlib/llabs.o
 .debug_info    0x00017dd7       0xcd .obj/source/library/stdlib/lldiv.o
 .debug_info    0x00017ea4      0xd17 .obj/source/library/stdlib/qsort.o
 .debug_info    0x00018bbb      0x1c4 .obj/source/library/stdlib/rand.o
 .debug_info    0x00018d7f      0x146 .obj/source/library/stdlib/strntoimax.o
 .debug_info    0x00018ec5      0x1ce .obj/source/library/stdlib/strntoumax.o
 .debug_info    0x00019093      0x258 .obj/source/library/stdlib/strtod.o
 .debug_info    0x000192eb      0x2e5 .obj/source/library/stdlib/strtoimax.o
 .debug_info    0x000195d0      0x2da .obj/source/library/stdlib/strtol.o
 .debug_info    0x000198aa      0x2da .obj/source/library/stdlib/strtoll.o
 .debug_info    0x00019b84      0x2b0 .obj/source/library/stdlib/strtoul.o
 .debug_info    0x00019e34      0x2a9 .obj/source/library/stdlib/strtoull.o
 .debug_info    0x0001a0dd      0x2b4 .obj/source/library/stdlib/strtoumax.o
 .debug_info    0x0001a391       0xd6 .obj/source/library/string/memchr.o
 .debug_info    0x0001a467       0xf6 .obj/source/library/string/memcmp.o
 .debug_info    0x0001a55d       0xf6 .obj/source/library/string/memcpy.o
 .debug_info    0x0001a653       0xf4 .obj/source/library/string/memmove.o
 .debug_info    0x0001a747       0xca .obj/source/library/string/memscan.o
 .debug_info    0x0001a811       0xd0 .obj/source/library/string/memset.o
 .debug_info    0x0001a8e1       0xf4 .obj/source/library/string/strcasecmp.o
 .debug_info    0x0001a9d5       0xc6 .obj/source/library/string/strcat.o
 .debug_info    0x0001aa9b       0xb5 .obj/source/library/string/strchr.o
 .debug_info    0x0001ab50       0xbf .obj/source/library/string/strcmp.o
 .debug_info    0x0001ac0f       0xe3 .obj/source/library/string/strcoll.o
 .debug_info    0x0001acf2       0xc6 .obj/source/library/string/strcpy.o
 .debug_info    0x0001adb8       0xe0 .obj/source/library/string/strcspn.o
 .debug_info    0x0001ae98      0x161 .obj/source/library/string/strdup.o
 .debug_info    0x0001aff9      0x18a .obj/source/library/string/strlcat.o
 .debug_info    0x0001b183      0x169 .obj/source/library/string/strlcpy.o
 .debug_info    0x0001b2ec       0xbb .obj/source/library/string/strlen.o
 .debug_info    0x0001b3a7      0x10c .obj/source/library/string/strncasecmp.o
 .debug_info    0x0001b4b3       0xdf .obj/source/library/string/strncat.o
 .debug_info    0x0001b592       0xce .obj/source/library/string/strnchr.o
 .debug_info    0x0001b660       0xd8 .obj/source/library/string/strncmp.o
 .debug_info    0x0001b738       0xdf .obj/source/library/string/strncpy.o
 .debug_info    0x0001b817      0x113 .obj/source/library/string/strnicmp.o
 .debug_info    0x0001b92a       0xc9 .obj/source/library/string/strnlen.o
 .debug_info    0x0001b9f3      0x14f .obj/source/library/string/strnstr.o
 .debug_info    0x0001bb42       0xd0 .obj/source/library/string/strpbrk.o
 .debug_info    0x0001bc12       0xf2 .obj/source/library/string/strrchr.o
 .debug_info    0x0001bd04      0x109 .obj/source/library/string/strsep.o
 .debug_info    0x0001be0d       0xe4 .obj/source/library/string/strspn.o
 .debug_info    0x0001bef1      0x164 .obj/source/library/string/strstr.o
 .debug_info    0x0001c055      0x15a .obj/source/library/stdio/snprintf.o
 .debug_info    0x0001c1af      0x14c .obj/source/library/stdio/sprintf.o
 .debug_info    0x0001c2fb      0x130 .obj/source/library/stdio/sscanf.o
 .debug_info    0x0001c42b      0xa88 .obj/source/library/stdio/vsnprintf.o
 .debug_info    0x0001ceb3      0x545 .obj/source/library/stdio/vsscanf.o
 .debug_info    0x0001d3f8      0x2ff .obj/source/library/math/acos.o
 .debug_info    0x0001d6f7      0x22b .obj/source/library/math/acosf.o
 .debug_info    0x0001d922      0x306 .obj/source/library/math/asin.o
 .debug_info    0x0001dc28      0x27b .obj/source/library/math/asinf.o
 .debug_info    0x0001dea3      0x22f .obj/source/library/math/atan.o
 .debug_info    0x0001e0d2      0x2c5 .obj/source/library/math/atan2.o
 .debug_info    0x0001e397      0x206 .obj/source/library/math/atan2f.o
 .debug_info    0x0001e59d      0x1de .obj/source/library/math/atanf.o
 .debug_info    0x0001e77b      0x18c .obj/source/library/math/ceil.o
 .debug_info    0x0001e907      0x12f .obj/source/library/math/ceilf.o
 .debug_info    0x0001ea36      0x12f .obj/source/library/math/copysign.o
 .debug_info    0x0001eb65      0x111 .obj/source/library/math/copysignf.o
 .debug_info    0x0001ec76      0x22e .obj/source/library/math/cos.o
 .debug_info    0x0001eea4      0x25a .obj/source/library/math/cosf.o
 .debug_info    0x0001f0fe      0x201 .obj/source/library/math/cosh.o
 .debug_info    0x0001f2ff      0x155 .obj/source/library/math/coshf.o
 .debug_info    0x0001f454      0x411 .obj/source/library/math/e_rem_pio2.o
 .debug_info    0x0001f865      0x2f3 .obj/source/library/math/e_rem_pio2f.o
 .debug_info    0x0001fb58      0x35a .obj/source/library/math/exp.o
 .debug_info    0x0001feb2      0x275 .obj/source/library/math/expf.o
 .debug_info    0x00020127      0x3c9 .obj/source/library/math/expm1.o
 .debug_info    0x000204f0      0x2c6 .obj/source/library/math/expm1f.o
 .debug_info    0x000207b6      0x117 .obj/source/library/math/fabs.o
 .debug_info    0x000208cd       0xb3 .obj/source/library/math/fabsf.o
 .debug_info    0x00020980      0x18c .obj/source/library/math/floor.o
 .debug_info    0x00020b0c      0x131 .obj/source/library/math/floorf.o
 .debug_info    0x00020c3d      0x256 .obj/source/library/math/fmod.o
 .debug_info    0x00020e93      0x172 .obj/source/library/math/fmodf.o
 .debug_info    0x00021005      0x1a1 .obj/source/library/math/frexp.o
 .debug_info    0x000211a6      0x155 .obj/source/library/math/frexpf.o
 .debug_info    0x000212fb      0x353 .obj/source/library/math/hypot.o
 .debug_info    0x0002164e      0x13c .obj/source/library/math/hypotf.o
 .debug_info    0x0002178a      0x16e .obj/source/library/math/k_cos.o
 .debug_info    0x000218f8      0x133 .obj/source/library/math/k_cosf.o
 .debug_info    0x00021a2b      0x396 .obj/source/library/math/k_rem_pio2.o
 .debug_info    0x00021dc1      0x370 .obj/source/library/math/k_rem_pio2f.o
 .debug_info    0x00022131      0x171 .obj/source/library/math/k_sin.o
 .debug_info    0x000222a2      0x12c .obj/source/library/math/k_sinf.o
 .debug_info    0x000223ce      0x1de .obj/source/library/math/k_tan.o
 .debug_info    0x000225ac      0x11f .obj/source/library/math/k_tanf.o
 .debug_info    0x000226cb      0x2e1 .obj/source/library/math/log.o
 .debug_info    0x000229ac      0x219 .obj/source/library/math/log10.o
 .debug_info    0x00022bc5      0x1c9 .obj/source/library/math/log10f.o
 .debug_info    0x00022d8e      0x25a .obj/source/library/math/logf.o
 .debug_info    0x00022fe8      0x2a8 .obj/source/library/math/modf.o
 .debug_info    0x00023290      0x1bb .obj/source/library/math/modff.o
 .debug_info    0x0002344b      0x710 .obj/source/library/math/pow.o
 .debug_info    0x00023b5b      0x5a2 .obj/source/library/math/powf.o
 .debug_info    0x000240fd      0x243 .obj/source/library/math/scalbn.o
 .debug_info    0x00024340      0x208 .obj/source/library/math/scalbnf.o
 .debug_info    0x00024548      0x231 .obj/source/library/math/sin.o
 .debug_info    0x00024779      0x25a .obj/source/library/math/sinf.o
 .debug_info    0x000249d3      0x205 .obj/source/library/math/sinh.o
 .debug_info    0x00024bd8      0x15e .obj/source/library/math/sinhf.o
 .debug_info    0x00024d36      0x213 .obj/source/library/math/sqrt.o
 .debug_info    0x00024f49      0x194 .obj/source/library/math/sqrtf.o
 .debug_info    0x000250dd      0x1f5 .obj/source/library/math/tan.o
 .debug_info    0x000252d2      0x1d4 .obj/source/library/math/tanf.o
 .debug_info    0x000254a6      0x256 .obj/source/library/math/tanh.o
 .debug_info    0x000256fc      0x1c6 .obj/source/library/math/tanhf.o
 .debug_info    0x000258c2      0x855 .obj/source/graphic/color.o
 .debug_info    0x00026117      0x460 .obj/source/graphic/maps.o
 .debug_info    0x00026577      0x2f4 .obj/source/graphic/pixel.o
 .debug_info    0x0002686b      0x7a3 .obj/source/graphic/rect.o
 .debug_info    0x0002700e      0xac9 .obj/source/graphic/surface.o
 .debug_info    0x00027ad7      0x5a1 .obj/source/graphic/maps/software/sw_blit.o
 .debug_info    0x00028078      0x78e .obj/source/graphic/maps/software/sw_blit_alpha.o
 .debug_info    0x00028806     0x5783 .obj/source/graphic/maps/software/sw_blit_replace.o
 .debug_info    0x0002df89     0x1225 .obj/source/graphic/maps/software/sw_fill.o
 .debug_info    0x0002f1ae      0x494 .obj/source/graphic/maps/software/sw_hline.o
 .debug_info    0x0002f642      0x51a .obj/source/graphic/maps/software/sw_point.o
 .debug_info    0x0002fb5c      0xc1e .obj/source/graphic/maps/software/sw_rotate.o
 .debug_info    0x0003077a      0xb29 .obj/source/graphic/maps/software/sw_scale.o
 .debug_info    0x000312a3      0x898 .obj/source/graphic/maps/software/sw_utils.o
 .debug_info    0x00031b3b      0x494 .obj/source/graphic/maps/software/sw_vline.o
 .debug_info    0x00031fcf       0x91 c:/yagarto-20121222/bin/../lib/gcc/arm-none-eabi/4.7.2\libgcc.a(_udivsi3.o)
 .debug_info    0x00032060       0x91 c:/yagarto-20121222/bin/../lib/gcc/arm-none-eabi/4.7.2\libgcc.a(_divsi3.o)
 .debug_info    0x000320f1       0x91 c:/yagarto-20121222/bin/../lib/gcc/arm-none-eabi/4.7.2\libgcc.a(_dvmd_tls.o)
 .debug_info    0x00032182       0x8d c:/yagarto-20121222/bin/../lib/gcc/arm-none-eabi/4.7.2\libgcc.a(_aeabi_ldivmod.o)
 .debug_info    0x0003220f       0x8d c:/yagarto-20121222/bin/../lib/gcc/arm-none-eabi/4.7.2\libgcc.a(_aeabi_uldivmod.o)
 .debug_info    0x0003229c      0x174 c:/yagarto-20121222/bin/../lib/gcc/arm-none-eabi/4.7.2\libgcc.a(bpabi.o)
 .debug_info    0x00032410      0x5ec c:/yagarto-20121222/bin/../lib/gcc/arm-none-eabi/4.7.2\libgcc.a(_divdi3.o)
 .debug_info    0x000329fc      0x5ab c:/yagarto-20121222/bin/../lib/gcc/arm-none-eabi/4.7.2\libgcc.a(_udivdi3.o)
 .debug_info    0x00032fa7     0x1d4d c:/yagarto-20121222/bin/../lib/gcc/arm-none-eabi/4.7.2\libgcc.a(unwind-arm.o)
 .debug_info    0x00034cf4       0x91 c:/yagarto-20121222/bin/../lib/gcc/arm-none-eabi/4.7.2\libgcc.a(libunwind.o)
 .debug_info    0x00034d85      0xa5b c:/yagarto-20121222/bin/../lib/gcc/arm-none-eabi/4.7.2\libgcc.a(pr-support.o)
 .debug_info    0x000357e0       0x91 c:/yagarto-20121222/bin/../lib/gcc/arm-none-eabi/4.7.2\libgcc.a(_clzsi2.o)

.debug_line     0x00000000     0xea15
 *(.debug_line)
 .debug_line    0x00000000       0xbf .obj/source/startup/start.o
 .debug_line    0x000000bf       0x4e .obj/source/arm/memcmp.o
 .debug_line    0x0000010d      0x165 .obj/source/arm/memcpy.o
 .debug_line    0x00000272      0x166 .obj/source/arm/memmove.o
 .debug_line    0x000003d8       0x6c .obj/source/arm/memset.o
 .debug_line    0x00000444       0x49 .obj/source/arm/strcmp.o
 .debug_line    0x0000048d       0x50 .obj/source/arm/strncmp.o
 .debug_line    0x000004dd      0x134 .obj/source/main.o
 .debug_line    0x00000611      0x386 .obj/source/tester-key-with-led.o
 .debug_line    0x00000997       0x97 .obj/source/hardware/hw-beep.o
 .debug_line    0x00000a2e      0x105 .obj/source/hardware/hw-key.o
 .debug_line    0x00000b33       0xcb .obj/source/hardware/hw-led.o
 .debug_line    0x00000bfe      0x17f .obj/source/hardware/s5p6818-alv.o
 .debug_line    0x00000d7d      0x207 .obj/source/hardware/s5p6818-clk.o
 .debug_line    0x00000f84      0x664 .obj/source/hardware/s5p6818-fb.o
 .debug_line    0x000015e8      0x44c .obj/source/hardware/s5p6818-gpio.o
 .debug_line    0x00001a34      0x742 .obj/source/hardware/s5p6818-irq.o
 .debug_line    0x00002176      0x2bd .obj/source/hardware/s5p6818-pwm.o
 .debug_line    0x00002433      0x100 .obj/source/hardware/s5p6818-rstcon.o
 .debug_line    0x00002533       0xe2 .obj/source/hardware/s5p6818-serial-stdio.o
 .debug_line    0x00002615      0x24b .obj/source/hardware/s5p6818-serial.o
 .debug_line    0x00002860       0xd9 .obj/source/hardware/s5p6818-tick-delay.o
 .debug_line    0x00002939       0xcf .obj/source/hardware/s5p6818-tick.o
 .debug_line    0x00002a08      0x238 .obj/source/hardware/s5p6818-timer.o
 .debug_line    0x00002c40      0x13c .obj/source/hardware/clk/clk-divider.o
 .debug_line    0x00002d7c      0x107 .obj/source/hardware/clk/clk-fixed-factor.o
 .debug_line    0x00002e83       0xee .obj/source/hardware/clk/clk-fixed.o
 .debug_line    0x00002f71      0x12b .obj/source/hardware/clk/clk-gate.o
 .debug_line    0x0000309c       0xeb .obj/source/hardware/clk/clk-link.o
 .debug_line    0x00003187      0x145 .obj/source/hardware/clk/clk-mux.o
 .debug_line    0x000032cc       0xf3 .obj/source/hardware/clk/clk-pll.o
 .debug_line    0x000033bf      0x246 .obj/source/hardware/clk/clk.o
 .debug_line    0x00003605      0x23e .obj/source/hardware/gpio/gpio.o
 .debug_line    0x00003843      0x19b .obj/source/hardware/interrupt/interrupt.o
 .debug_line    0x000039de      0x14f .obj/source/hardware/pwm/pwm.o
 .debug_line    0x00003b2d      0x19a .obj/source/arm/cp15.o
 .debug_line    0x00003cc7       0x3d .obj/source/library/ctype/ctype.o
 .debug_line    0x00003d04       0x6d .obj/source/library/ctype/isalnum.o
 .debug_line    0x00003d71       0x6d .obj/source/library/ctype/isalpha.o
 .debug_line    0x00003dde       0x4f .obj/source/library/ctype/isascii.o
 .debug_line    0x00003e2d       0x4f .obj/source/library/ctype/isblank.o
 .debug_line    0x00003e7c       0x6d .obj/source/library/ctype/iscntrl.o
 .debug_line    0x00003ee9       0x6d .obj/source/library/ctype/isdigit.o
 .debug_line    0x00003f56       0x6d .obj/source/library/ctype/isgraph.o
 .debug_line    0x00003fc3       0x6d .obj/source/library/ctype/islower.o
 .debug_line    0x00004030       0x6d .obj/source/library/ctype/isprint.o
 .debug_line    0x0000409d       0x6d .obj/source/library/ctype/ispunct.o
 .debug_line    0x0000410a       0x6d .obj/source/library/ctype/isspace.o
 .debug_line    0x00004177       0x6d .obj/source/library/ctype/isupper.o
 .debug_line    0x000041e4       0x6e .obj/source/library/ctype/isxdigit.o
 .debug_line    0x00004252       0x4f .obj/source/library/ctype/toascii.o
 .debug_line    0x000042a1       0x6d .obj/source/library/ctype/tolower.o
 .debug_line    0x0000430e       0x6d .obj/source/library/ctype/toupper.o
 .debug_line    0x0000437b       0x4e .obj/source/library/errno/errno.o
 .debug_line    0x000043c9       0x6f .obj/source/library/errno/strerror.o
 .debug_line    0x00004438       0x4b .obj/source/library/exit/abort.o
 .debug_line    0x00004483       0x4c .obj/source/library/exit/assert.o
 .debug_line    0x000044cf       0x4a .obj/source/library/exit/exit.o
 .debug_line    0x00004519      0x694 .obj/source/library/malloc/malloc.o
 .debug_line    0x00004bad       0x4c .obj/source/library/stdlib/abs.o
 .debug_line    0x00004bf9       0x6b .obj/source/library/stdlib/atof.o
 .debug_line    0x00004c64       0x6b .obj/source/library/stdlib/atoi.o
 .debug_line    0x00004ccf       0x6b .obj/source/library/stdlib/atol.o
 .debug_line    0x00004d3a       0x6c .obj/source/library/stdlib/atoll.o
 .debug_line    0x00004da6       0x87 .obj/source/library/stdlib/bsearch.o
 .debug_line    0x00004e2d       0x6c .obj/source/library/stdlib/div.o
 .debug_line    0x00004e99       0x4d .obj/source/library/stdlib/labs.o
 .debug_line    0x00004ee6       0x6d .obj/source/library/stdlib/ldiv.o
 .debug_line    0x00004f53       0x51 .obj/source/library/stdlib/llabs.o
 .debug_line    0x00004fa4       0x70 .obj/source/library/stdlib/lldiv.o
 .debug_line    0x00005014      0x333 .obj/source/library/stdlib/qsort.o
 .debug_line    0x00005347       0x95 .obj/source/library/stdlib/rand.o
 .debug_line    0x000053dc       0x7b .obj/source/library/stdlib/strntoimax.o
 .debug_line    0x00005457       0xfd .obj/source/library/stdlib/strntoumax.o
 .debug_line    0x00005554      0x10b .obj/source/library/stdlib/strtod.o
 .debug_line    0x0000565f      0x162 .obj/source/library/stdlib/strtoimax.o
 .debug_line    0x000057c1       0xf5 .obj/source/library/stdlib/strtol.o
 .debug_line    0x000058b6      0x155 .obj/source/library/stdlib/strtoll.o
 .debug_line    0x00005a0b       0xd7 .obj/source/library/stdlib/strtoul.o
 .debug_line    0x00005ae2       0xfc .obj/source/library/stdlib/strtoull.o
 .debug_line    0x00005bde      0x10b .obj/source/library/stdlib/strtoumax.o
 .debug_line    0x00005ce9       0x80 .obj/source/library/string/memchr.o
 .debug_line    0x00005d69       0x75 .obj/source/library/string/memcmp.o
 .debug_line    0x00005dde       0x7c .obj/source/library/string/memcpy.o
 .debug_line    0x00005e5a       0x92 .obj/source/library/string/memmove.o
 .debug_line    0x00005eec       0x74 .obj/source/library/string/memscan.o
 .debug_line    0x00005f60       0x8c .obj/source/library/string/memset.o
 .debug_line    0x00005fec       0x7d .obj/source/library/string/strcasecmp.o
 .debug_line    0x00006069       0x5e .obj/source/library/string/strcat.o
 .debug_line    0x000060c7       0x55 .obj/source/library/string/strchr.o
 .debug_line    0x0000611c       0x58 .obj/source/library/string/strcmp.o
 .debug_line    0x00006174       0x6d .obj/source/library/string/strcoll.o
 .debug_line    0x000061e1       0x58 .obj/source/library/string/strcpy.o
 .debug_line    0x00006239       0x7e .obj/source/library/string/strcspn.o
 .debug_line    0x000062b7       0x87 .obj/source/library/string/strdup.o
 .debug_line    0x0000633e       0x84 .obj/source/library/string/strlcat.o
 .debug_line    0x000063c2       0x83 .obj/source/library/string/strlcpy.o
 .debug_line    0x00006445       0x74 .obj/source/library/string/strlen.o
 .debug_line    0x000064b9       0x90 .obj/source/library/string/strncasecmp.o
 .debug_line    0x00006549       0x89 .obj/source/library/string/strncat.o
 .debug_line    0x000065d2       0x79 .obj/source/library/string/strnchr.o
 .debug_line    0x0000664b       0x7f .obj/source/library/string/strncmp.o
 .debug_line    0x000066ca       0x72 .obj/source/library/string/strncpy.o
 .debug_line    0x0000673c       0x8d .obj/source/library/string/strnicmp.o
 .debug_line    0x000067c9       0x7c .obj/source/library/string/strnlen.o
 .debug_line    0x00006845       0x8b .obj/source/library/string/strnstr.o
 .debug_line    0x000068d0       0x5c .obj/source/library/string/strpbrk.o
 .debug_line    0x0000692c       0x7c .obj/source/library/string/strrchr.o
 .debug_line    0x000069a8       0x72 .obj/source/library/string/strsep.o
 .debug_line    0x00006a1a       0x7d .obj/source/library/string/strspn.o
 .debug_line    0x00006a97       0x86 .obj/source/library/string/strstr.o
 .debug_line    0x00006b1d       0x94 .obj/source/library/stdio/snprintf.o
 .debug_line    0x00006bb1       0x95 .obj/source/library/stdio/sprintf.o
 .debug_line    0x00006c46       0x87 .obj/source/library/stdio/sscanf.o
 .debug_line    0x00006ccd      0x713 .obj/source/library/stdio/vsnprintf.o
 .debug_line    0x000073e0      0x3a2 .obj/source/library/stdio/vsscanf.o
 .debug_line    0x00007782       0xe7 .obj/source/library/math/acos.o
 .debug_line    0x00007869       0xd3 .obj/source/library/math/acosf.o
 .debug_line    0x0000793c       0xbb .obj/source/library/math/asin.o
 .debug_line    0x000079f7       0xba .obj/source/library/math/asinf.o
 .debug_line    0x00007ab1       0xcc .obj/source/library/math/atan.o
 .debug_line    0x00007b7d       0xe0 .obj/source/library/math/atan2.o
 .debug_line    0x00007c5d       0xcd .obj/source/library/math/atan2f.o
 .debug_line    0x00007d2a       0xc1 .obj/source/library/math/atanf.o
 .debug_line    0x00007deb       0xa1 .obj/source/library/math/ceil.o
 .debug_line    0x00007e8c       0x8b .obj/source/library/math/ceilf.o
 .debug_line    0x00007f17       0x75 .obj/source/library/math/copysign.o
 .debug_line    0x00007f8c       0x77 .obj/source/library/math/copysignf.o
 .debug_line    0x00008003       0x8d .obj/source/library/math/cos.o
 .debug_line    0x00008090       0xb4 .obj/source/library/math/cosf.o
 .debug_line    0x00008144       0xb5 .obj/source/library/math/cosh.o
 .debug_line    0x000081f9       0x97 .obj/source/library/math/coshf.o
 .debug_line    0x00008290      0x12e .obj/source/library/math/e_rem_pio2.o
 .debug_line    0x000083be       0xbe .obj/source/library/math/e_rem_pio2f.o
 .debug_line    0x0000847c       0xdb .obj/source/library/math/exp.o
 .debug_line    0x00008557       0xd6 .obj/source/library/math/expf.o
 .debug_line    0x0000862d      0x12b .obj/source/library/math/expm1.o
 .debug_line    0x00008758      0x123 .obj/source/library/math/expm1f.o
 .debug_line    0x0000887b       0x71 .obj/source/library/math/fabs.o
 .debug_line    0x000088ec       0x68 .obj/source/library/math/fabsf.o
 .debug_line    0x00008954       0xa5 .obj/source/library/math/floor.o
 .debug_line    0x000089f9       0x8c .obj/source/library/math/floorf.o
 .debug_line    0x00008a85      0x18f .obj/source/library/math/fmod.o
 .debug_line    0x00008c14       0xeb .obj/source/library/math/fmodf.o
 .debug_line    0x00008cff       0x92 .obj/source/library/math/frexp.o
 .debug_line    0x00008d91       0x89 .obj/source/library/math/frexpf.o
 .debug_line    0x00008e1a       0xcc .obj/source/library/math/hypot.o
 .debug_line    0x00008ee6       0xad .obj/source/library/math/hypotf.o
 .debug_line    0x00008f93       0x58 .obj/source/library/math/k_cos.o
 .debug_line    0x00008feb       0x54 .obj/source/library/math/k_cosf.o
 .debug_line    0x0000903f      0x372 .obj/source/library/math/k_rem_pio2.o
 .debug_line    0x000093b1      0x3e6 .obj/source/library/math/k_rem_pio2f.o
 .debug_line    0x00009797       0x60 .obj/source/library/math/k_sin.o
 .debug_line    0x000097f7       0x53 .obj/source/library/math/k_sinf.o
 .debug_line    0x0000984a       0xbf .obj/source/library/math/k_tan.o
 .debug_line    0x00009909       0x5f .obj/source/library/math/k_tanf.o
 .debug_line    0x00009968       0xe3 .obj/source/library/math/log.o
 .debug_line    0x00009a4b       0x9b .obj/source/library/math/log10.o
 .debug_line    0x00009ae6       0x9a .obj/source/library/math/log10f.o
 .debug_line    0x00009b80       0xd9 .obj/source/library/math/logf.o
 .debug_line    0x00009c59       0xa3 .obj/source/library/math/modf.o
 .debug_line    0x00009cfc       0x84 .obj/source/library/math/modff.o
 .debug_line    0x00009d80      0x1d9 .obj/source/library/math/pow.o
 .debug_line    0x00009f59      0x198 .obj/source/library/math/powf.o
 .debug_line    0x0000a0f1       0xa7 .obj/source/library/math/scalbn.o
 .debug_line    0x0000a198       0x9f .obj/source/library/math/scalbnf.o
 .debug_line    0x0000a237       0x8d .obj/source/library/math/sin.o
 .debug_line    0x0000a2c4       0xa9 .obj/source/library/math/sinf.o
 .debug_line    0x0000a36d       0xb6 .obj/source/library/math/sinh.o
 .debug_line    0x0000a423       0x97 .obj/source/library/math/sinhf.o
 .debug_line    0x0000a4ba      0x110 .obj/source/library/math/sqrt.o
 .debug_line    0x0000a5ca       0xb6 .obj/source/library/math/sqrtf.o
 .debug_line    0x0000a680       0x82 .obj/source/library/math/tan.o
 .debug_line    0x0000a702       0x98 .obj/source/library/math/tanf.o
 .debug_line    0x0000a79a       0x95 .obj/source/library/math/tanh.o
 .debug_line    0x0000a82f       0x9a .obj/source/library/math/tanhf.o
 .debug_line    0x0000a8c9      0x18f .obj/source/graphic/color.o
 .debug_line    0x0000aa58       0xc1 .obj/source/graphic/maps.o
 .debug_line    0x0000ab19      0x215 .obj/source/graphic/pixel.o
 .debug_line    0x0000ad2e      0x3d5 .obj/source/graphic/rect.o
 .debug_line    0x0000b103      0x1a3 .obj/source/graphic/surface.o
 .debug_line    0x0000b2a6      0x126 .obj/source/graphic/maps/software/sw_blit.o
 .debug_line    0x0000b3cc      0x13d .obj/source/graphic/maps/software/sw_blit_alpha.o
 .debug_line    0x0000b509     0x17a5 .obj/source/graphic/maps/software/sw_blit_replace.o
 .debug_line    0x0000ccae      0x4bf .obj/source/graphic/maps/software/sw_fill.o
 .debug_line    0x0000d16d       0xbb .obj/source/graphic/maps/software/sw_hline.o
 .debug_line    0x0000d228      0x10e .obj/source/graphic/maps/software/sw_point.o
 .debug_line    0x0000d336      0x501 .obj/source/graphic/maps/software/sw_rotate.o
 .debug_line    0x0000d837      0x350 .obj/source/graphic/maps/software/sw_scale.o
 .debug_line    0x0000db87      0x17b .obj/source/graphic/maps/software/sw_utils.o
 .debug_line    0x0000dd02       0xbb .obj/source/graphic/maps/software/sw_vline.o
 .debug_line    0x0000ddbd       0x8a c:/yagarto-20121222/bin/../lib/gcc/arm-none-eabi/4.7.2\libgcc.a(_udivsi3.o)
 .debug_line    0x0000de47       0x96 c:/yagarto-20121222/bin/../lib/gcc/arm-none-eabi/4.7.2\libgcc.a(_divsi3.o)
 .debug_line    0x0000dedd       0x61 c:/yagarto-20121222/bin/../lib/gcc/arm-none-eabi/4.7.2\libgcc.a(_dvmd_tls.o)
 .debug_line    0x0000df3e       0x64 c:/yagarto-20121222/bin/../lib/gcc/arm-none-eabi/4.7.2\libgcc.a(_aeabi_ldivmod.o)
 .debug_line    0x0000dfa2       0x66 c:/yagarto-20121222/bin/../lib/gcc/arm-none-eabi/4.7.2\libgcc.a(_aeabi_uldivmod.o)
 .debug_line    0x0000e008       0x67 c:/yagarto-20121222/bin/../lib/gcc/arm-none-eabi/4.7.2\libgcc.a(bpabi.o)
 .debug_line    0x0000e06f       0xdb c:/yagarto-20121222/bin/../lib/gcc/arm-none-eabi/4.7.2\libgcc.a(_divdi3.o)
 .debug_line    0x0000e14a       0xce c:/yagarto-20121222/bin/../lib/gcc/arm-none-eabi/4.7.2\libgcc.a(_udivdi3.o)
 .debug_line    0x0000e218      0x526 c:/yagarto-20121222/bin/../lib/gcc/arm-none-eabi/4.7.2\libgcc.a(unwind-arm.o)
 .debug_line    0x0000e73e       0xaf c:/yagarto-20121222/bin/../lib/gcc/arm-none-eabi/4.7.2\libgcc.a(libunwind.o)
 .debug_line    0x0000e7ed      0x1ba c:/yagarto-20121222/bin/../lib/gcc/arm-none-eabi/4.7.2\libgcc.a(pr-support.o)
 .debug_line    0x0000e9a7       0x6e c:/yagarto-20121222/bin/../lib/gcc/arm-none-eabi/4.7.2\libgcc.a(_clzsi2.o)

.debug_pubnames
 *(.debug_pubnames)

.debug_aranges  0x00000000     0x1958
 *(.debug_aranges)
 .debug_aranges
                0x00000000       0x20 .obj/source/startup/start.o
 .debug_aranges
                0x00000020       0x20 .obj/source/arm/memcmp.o
 .debug_aranges
                0x00000040       0x20 .obj/source/arm/memcpy.o
 .debug_aranges
                0x00000060       0x20 .obj/source/arm/memmove.o
 .debug_aranges
                0x00000080       0x20 .obj/source/arm/memset.o
 .debug_aranges
                0x000000a0       0x20 .obj/source/arm/strcmp.o
 .debug_aranges
                0x000000c0       0x20 .obj/source/arm/strncmp.o
 .debug_aranges
                0x000000e0       0x20 .obj/source/main.o
 .debug_aranges
                0x00000100       0x20 .obj/source/tester-key-with-led.o
 .debug_aranges
                0x00000120       0x20 .obj/source/hardware/hw-beep.o
 .debug_aranges
                0x00000140       0x20 .obj/source/hardware/hw-key.o
 .debug_aranges
                0x00000160       0x20 .obj/source/hardware/hw-led.o
 .debug_aranges
                0x00000180       0x20 .obj/source/hardware/s5p6818-alv.o
 .debug_aranges
                0x000001a0       0x20 .obj/source/hardware/s5p6818-clk.o
 .debug_aranges
                0x000001c0       0x20 .obj/source/hardware/s5p6818-fb.o
 .debug_aranges
                0x000001e0       0x20 .obj/source/hardware/s5p6818-gpio.o
 .debug_aranges
                0x00000200       0x20 .obj/source/hardware/s5p6818-irq.o
 .debug_aranges
                0x00000220       0x20 .obj/source/hardware/s5p6818-pwm.o
 .debug_aranges
                0x00000240       0x20 .obj/source/hardware/s5p6818-rstcon.o
 .debug_aranges
                0x00000260       0x20 .obj/source/hardware/s5p6818-serial-stdio.o
 .debug_aranges
                0x00000280       0x20 .obj/source/hardware/s5p6818-serial.o
 .debug_aranges
                0x000002a0       0x20 .obj/source/hardware/s5p6818-tick-delay.o
 .debug_aranges
                0x000002c0       0x20 .obj/source/hardware/s5p6818-tick.o
 .debug_aranges
                0x000002e0       0x20 .obj/source/hardware/s5p6818-timer.o
 .debug_aranges
                0x00000300       0x20 .obj/source/hardware/clk/clk-divider.o
 .debug_aranges
                0x00000320       0x20 .obj/source/hardware/clk/clk-fixed-factor.o
 .debug_aranges
                0x00000340       0x20 .obj/source/hardware/clk/clk-fixed.o
 .debug_aranges
                0x00000360       0x20 .obj/source/hardware/clk/clk-gate.o
 .debug_aranges
                0x00000380       0x20 .obj/source/hardware/clk/clk-link.o
 .debug_aranges
                0x000003a0       0x20 .obj/source/hardware/clk/clk-mux.o
 .debug_aranges
                0x000003c0       0x20 .obj/source/hardware/clk/clk-pll.o
 .debug_aranges
                0x000003e0       0x20 .obj/source/hardware/clk/clk.o
 .debug_aranges
                0x00000400       0x20 .obj/source/hardware/gpio/gpio.o
 .debug_aranges
                0x00000420       0x20 .obj/source/hardware/interrupt/interrupt.o
 .debug_aranges
                0x00000440       0x20 .obj/source/hardware/pwm/pwm.o
 .debug_aranges
                0x00000460       0x20 .obj/source/arm/cp15.o
 .debug_aranges
                0x00000480       0x18 .obj/source/library/ctype/ctype.o
 .debug_aranges
                0x00000498       0x20 .obj/source/library/ctype/isalnum.o
 .debug_aranges
                0x000004b8       0x20 .obj/source/library/ctype/isalpha.o
 .debug_aranges
                0x000004d8       0x20 .obj/source/library/ctype/isascii.o
 .debug_aranges
                0x000004f8       0x20 .obj/source/library/ctype/isblank.o
 .debug_aranges
                0x00000518       0x20 .obj/source/library/ctype/iscntrl.o
 .debug_aranges
                0x00000538       0x20 .obj/source/library/ctype/isdigit.o
 .debug_aranges
                0x00000558       0x20 .obj/source/library/ctype/isgraph.o
 .debug_aranges
                0x00000578       0x20 .obj/source/library/ctype/islower.o
 .debug_aranges
                0x00000598       0x20 .obj/source/library/ctype/isprint.o
 .debug_aranges
                0x000005b8       0x20 .obj/source/library/ctype/ispunct.o
 .debug_aranges
                0x000005d8       0x20 .obj/source/library/ctype/isspace.o
 .debug_aranges
                0x000005f8       0x20 .obj/source/library/ctype/isupper.o
 .debug_aranges
                0x00000618       0x20 .obj/source/library/ctype/isxdigit.o
 .debug_aranges
                0x00000638       0x20 .obj/source/library/ctype/toascii.o
 .debug_aranges
                0x00000658       0x20 .obj/source/library/ctype/tolower.o
 .debug_aranges
                0x00000678       0x20 .obj/source/library/ctype/toupper.o
 .debug_aranges
                0x00000698       0x20 .obj/source/library/errno/errno.o
 .debug_aranges
                0x000006b8       0x20 .obj/source/library/errno/strerror.o
 .debug_aranges
                0x000006d8       0x20 .obj/source/library/exit/abort.o
 .debug_aranges
                0x000006f8       0x20 .obj/source/library/exit/assert.o
 .debug_aranges
                0x00000718       0x20 .obj/source/library/exit/exit.o
 .debug_aranges
                0x00000738       0x20 .obj/source/library/malloc/malloc.o
 .debug_aranges
                0x00000758       0x20 .obj/source/library/stdlib/abs.o
 .debug_aranges
                0x00000778       0x20 .obj/source/library/stdlib/atof.o
 .debug_aranges
                0x00000798       0x20 .obj/source/library/stdlib/atoi.o
 .debug_aranges
                0x000007b8       0x20 .obj/source/library/stdlib/atol.o
 .debug_aranges
                0x000007d8       0x20 .obj/source/library/stdlib/atoll.o
 .debug_aranges
                0x000007f8       0x20 .obj/source/library/stdlib/bsearch.o
 .debug_aranges
                0x00000818       0x20 .obj/source/library/stdlib/div.o
 .debug_aranges
                0x00000838       0x20 .obj/source/library/stdlib/labs.o
 .debug_aranges
                0x00000858       0x20 .obj/source/library/stdlib/ldiv.o
 .debug_aranges
                0x00000878       0x20 .obj/source/library/stdlib/llabs.o
 .debug_aranges
                0x00000898       0x20 .obj/source/library/stdlib/lldiv.o
 .debug_aranges
                0x000008b8       0x20 .obj/source/library/stdlib/qsort.o
 .debug_aranges
                0x000008d8       0x20 .obj/source/library/stdlib/rand.o
 .debug_aranges
                0x000008f8       0x20 .obj/source/library/stdlib/strntoimax.o
 .debug_aranges
                0x00000918       0x20 .obj/source/library/stdlib/strntoumax.o
 .debug_aranges
                0x00000938       0x20 .obj/source/library/stdlib/strtod.o
 .debug_aranges
                0x00000958       0x20 .obj/source/library/stdlib/strtoimax.o
 .debug_aranges
                0x00000978       0x20 .obj/source/library/stdlib/strtol.o
 .debug_aranges
                0x00000998       0x20 .obj/source/library/stdlib/strtoll.o
 .debug_aranges
                0x000009b8       0x20 .obj/source/library/stdlib/strtoul.o
 .debug_aranges
                0x000009d8       0x20 .obj/source/library/stdlib/strtoull.o
 .debug_aranges
                0x000009f8       0x20 .obj/source/library/stdlib/strtoumax.o
 .debug_aranges
                0x00000a18       0x20 .obj/source/library/string/memchr.o
 .debug_aranges
                0x00000a38       0x20 .obj/source/library/string/memcmp.o
 .debug_aranges
                0x00000a58       0x20 .obj/source/library/string/memcpy.o
 .debug_aranges
                0x00000a78       0x20 .obj/source/library/string/memmove.o
 .debug_aranges
                0x00000a98       0x20 .obj/source/library/string/memscan.o
 .debug_aranges
                0x00000ab8       0x20 .obj/source/library/string/memset.o
 .debug_aranges
                0x00000ad8       0x20 .obj/source/library/string/strcasecmp.o
 .debug_aranges
                0x00000af8       0x20 .obj/source/library/string/strcat.o
 .debug_aranges
                0x00000b18       0x20 .obj/source/library/string/strchr.o
 .debug_aranges
                0x00000b38       0x20 .obj/source/library/string/strcmp.o
 .debug_aranges
                0x00000b58       0x20 .obj/source/library/string/strcoll.o
 .debug_aranges
                0x00000b78       0x20 .obj/source/library/string/strcpy.o
 .debug_aranges
                0x00000b98       0x20 .obj/source/library/string/strcspn.o
 .debug_aranges
                0x00000bb8       0x20 .obj/source/library/string/strdup.o
 .debug_aranges
                0x00000bd8       0x20 .obj/source/library/string/strlcat.o
 .debug_aranges
                0x00000bf8       0x20 .obj/source/library/string/strlcpy.o
 .debug_aranges
                0x00000c18       0x20 .obj/source/library/string/strlen.o
 .debug_aranges
                0x00000c38       0x20 .obj/source/library/string/strncasecmp.o
 .debug_aranges
                0x00000c58       0x20 .obj/source/library/string/strncat.o
 .debug_aranges
                0x00000c78       0x20 .obj/source/library/string/strnchr.o
 .debug_aranges
                0x00000c98       0x20 .obj/source/library/string/strncmp.o
 .debug_aranges
                0x00000cb8       0x20 .obj/source/library/string/strncpy.o
 .debug_aranges
                0x00000cd8       0x20 .obj/source/library/string/strnicmp.o
 .debug_aranges
                0x00000cf8       0x20 .obj/source/library/string/strnlen.o
 .debug_aranges
                0x00000d18       0x20 .obj/source/library/string/strnstr.o
 .debug_aranges
                0x00000d38       0x20 .obj/source/library/string/strpbrk.o
 .debug_aranges
                0x00000d58       0x20 .obj/source/library/string/strrchr.o
 .debug_aranges
                0x00000d78       0x20 .obj/source/library/string/strsep.o
 .debug_aranges
                0x00000d98       0x20 .obj/source/library/string/strspn.o
 .debug_aranges
                0x00000db8       0x20 .obj/source/library/string/strstr.o
 .debug_aranges
                0x00000dd8       0x20 .obj/source/library/stdio/snprintf.o
 .debug_aranges
                0x00000df8       0x20 .obj/source/library/stdio/sprintf.o
 .debug_aranges
                0x00000e18       0x20 .obj/source/library/stdio/sscanf.o
 .debug_aranges
                0x00000e38       0x20 .obj/source/library/stdio/vsnprintf.o
 .debug_aranges
                0x00000e58       0x20 .obj/source/library/stdio/vsscanf.o
 .debug_aranges
                0x00000e78       0x20 .obj/source/library/math/acos.o
 .debug_aranges
                0x00000e98       0x20 .obj/source/library/math/acosf.o
 .debug_aranges
                0x00000eb8       0x20 .obj/source/library/math/asin.o
 .debug_aranges
                0x00000ed8       0x20 .obj/source/library/math/asinf.o
 .debug_aranges
                0x00000ef8       0x20 .obj/source/library/math/atan.o
 .debug_aranges
                0x00000f18       0x20 .obj/source/library/math/atan2.o
 .debug_aranges
                0x00000f38       0x20 .obj/source/library/math/atan2f.o
 .debug_aranges
                0x00000f58       0x20 .obj/source/library/math/atanf.o
 .debug_aranges
                0x00000f78       0x20 .obj/source/library/math/ceil.o
 .debug_aranges
                0x00000f98       0x20 .obj/source/library/math/ceilf.o
 .debug_aranges
                0x00000fb8       0x20 .obj/source/library/math/copysign.o
 .debug_aranges
                0x00000fd8       0x20 .obj/source/library/math/copysignf.o
 .debug_aranges
                0x00000ff8       0x20 .obj/source/library/math/cos.o
 .debug_aranges
                0x00001018       0x20 .obj/source/library/math/cosf.o
 .debug_aranges
                0x00001038       0x20 .obj/source/library/math/cosh.o
 .debug_aranges
                0x00001058       0x20 .obj/source/library/math/coshf.o
 .debug_aranges
                0x00001078       0x20 .obj/source/library/math/e_rem_pio2.o
 .debug_aranges
                0x00001098       0x20 .obj/source/library/math/e_rem_pio2f.o
 .debug_aranges
                0x000010b8       0x20 .obj/source/library/math/exp.o
 .debug_aranges
                0x000010d8       0x20 .obj/source/library/math/expf.o
 .debug_aranges
                0x000010f8       0x20 .obj/source/library/math/expm1.o
 .debug_aranges
                0x00001118       0x20 .obj/source/library/math/expm1f.o
 .debug_aranges
                0x00001138       0x20 .obj/source/library/math/fabs.o
 .debug_aranges
                0x00001158       0x20 .obj/source/library/math/fabsf.o
 .debug_aranges
                0x00001178       0x20 .obj/source/library/math/floor.o
 .debug_aranges
                0x00001198       0x20 .obj/source/library/math/floorf.o
 .debug_aranges
                0x000011b8       0x20 .obj/source/library/math/fmod.o
 .debug_aranges
                0x000011d8       0x20 .obj/source/library/math/fmodf.o
 .debug_aranges
                0x000011f8       0x20 .obj/source/library/math/frexp.o
 .debug_aranges
                0x00001218       0x20 .obj/source/library/math/frexpf.o
 .debug_aranges
                0x00001238       0x20 .obj/source/library/math/hypot.o
 .debug_aranges
                0x00001258       0x20 .obj/source/library/math/hypotf.o
 .debug_aranges
                0x00001278       0x20 .obj/source/library/math/k_cos.o
 .debug_aranges
                0x00001298       0x20 .obj/source/library/math/k_cosf.o
 .debug_aranges
                0x000012b8       0x20 .obj/source/library/math/k_rem_pio2.o
 .debug_aranges
                0x000012d8       0x20 .obj/source/library/math/k_rem_pio2f.o
 .debug_aranges
                0x000012f8       0x20 .obj/source/library/math/k_sin.o
 .debug_aranges
                0x00001318       0x20 .obj/source/library/math/k_sinf.o
 .debug_aranges
                0x00001338       0x20 .obj/source/library/math/k_tan.o
 .debug_aranges
                0x00001358       0x20 .obj/source/library/math/k_tanf.o
 .debug_aranges
                0x00001378       0x20 .obj/source/library/math/log.o
 .debug_aranges
                0x00001398       0x20 .obj/source/library/math/log10.o
 .debug_aranges
                0x000013b8       0x20 .obj/source/library/math/log10f.o
 .debug_aranges
                0x000013d8       0x20 .obj/source/library/math/logf.o
 .debug_aranges
                0x000013f8       0x20 .obj/source/library/math/modf.o
 .debug_aranges
                0x00001418       0x20 .obj/source/library/math/modff.o
 .debug_aranges
                0x00001438       0x20 .obj/source/library/math/pow.o
 .debug_aranges
                0x00001458       0x20 .obj/source/library/math/powf.o
 .debug_aranges
                0x00001478       0x20 .obj/source/library/math/scalbn.o
 .debug_aranges
                0x00001498       0x20 .obj/source/library/math/scalbnf.o
 .debug_aranges
                0x000014b8       0x20 .obj/source/library/math/sin.o
 .debug_aranges
                0x000014d8       0x20 .obj/source/library/math/sinf.o
 .debug_aranges
                0x000014f8       0x20 .obj/source/library/math/sinh.o
 .debug_aranges
                0x00001518       0x20 .obj/source/library/math/sinhf.o
 .debug_aranges
                0x00001538       0x20 .obj/source/library/math/sqrt.o
 .debug_aranges
                0x00001558       0x20 .obj/source/library/math/sqrtf.o
 .debug_aranges
                0x00001578       0x20 .obj/source/library/math/tan.o
 .debug_aranges
                0x00001598       0x20 .obj/source/library/math/tanf.o
 .debug_aranges
                0x000015b8       0x20 .obj/source/library/math/tanh.o
 .debug_aranges
                0x000015d8       0x20 .obj/source/library/math/tanhf.o
 .debug_aranges
                0x000015f8       0x20 .obj/source/graphic/color.o
 .debug_aranges
                0x00001618       0x20 .obj/source/graphic/maps.o
 .debug_aranges
                0x00001638       0x20 .obj/source/graphic/pixel.o
 .debug_aranges
                0x00001658       0x20 .obj/source/graphic/rect.o
 .debug_aranges
                0x00001678       0x20 .obj/source/graphic/surface.o
 .debug_aranges
                0x00001698       0x20 .obj/source/graphic/maps/software/sw_blit.o
 .debug_aranges
                0x000016b8       0x20 .obj/source/graphic/maps/software/sw_blit_alpha.o
 .debug_aranges
                0x000016d8       0x20 .obj/source/graphic/maps/software/sw_blit_replace.o
 .debug_aranges
                0x000016f8       0x20 .obj/source/graphic/maps/software/sw_fill.o
 .debug_aranges
                0x00001718       0x20 .obj/source/graphic/maps/software/sw_hline.o
 .debug_aranges
                0x00001738       0x20 .obj/source/graphic/maps/software/sw_point.o
 .debug_aranges
                0x00001758       0x20 .obj/source/graphic/maps/software/sw_rotate.o
 .debug_aranges
                0x00001778       0x20 .obj/source/graphic/maps/software/sw_scale.o
 .debug_aranges
                0x00001798       0x20 .obj/source/graphic/maps/software/sw_utils.o
 .debug_aranges
                0x000017b8       0x20 .obj/source/graphic/maps/software/sw_vline.o
 .debug_aranges
                0x000017d8       0x20 c:/yagarto-20121222/bin/../lib/gcc/arm-none-eabi/4.7.2\libgcc.a(_udivsi3.o)
 .debug_aranges
                0x000017f8       0x20 c:/yagarto-20121222/bin/../lib/gcc/arm-none-eabi/4.7.2\libgcc.a(_divsi3.o)
 .debug_aranges
                0x00001818       0x20 c:/yagarto-20121222/bin/../lib/gcc/arm-none-eabi/4.7.2\libgcc.a(_dvmd_tls.o)
 .debug_aranges
                0x00001838       0x20 c:/yagarto-20121222/bin/../lib/gcc/arm-none-eabi/4.7.2\libgcc.a(_aeabi_ldivmod.o)
 .debug_aranges
                0x00001858       0x20 c:/yagarto-20121222/bin/../lib/gcc/arm-none-eabi/4.7.2\libgcc.a(_aeabi_uldivmod.o)
 .debug_aranges
                0x00001878       0x20 c:/yagarto-20121222/bin/../lib/gcc/arm-none-eabi/4.7.2\libgcc.a(bpabi.o)
 .debug_aranges
                0x00001898       0x20 c:/yagarto-20121222/bin/../lib/gcc/arm-none-eabi/4.7.2\libgcc.a(_divdi3.o)
 .debug_aranges
                0x000018b8       0x20 c:/yagarto-20121222/bin/../lib/gcc/arm-none-eabi/4.7.2\libgcc.a(_udivdi3.o)
 .debug_aranges
                0x000018d8       0x20 c:/yagarto-20121222/bin/../lib/gcc/arm-none-eabi/4.7.2\libgcc.a(unwind-arm.o)
 .debug_aranges
                0x000018f8       0x20 c:/yagarto-20121222/bin/../lib/gcc/arm-none-eabi/4.7.2\libgcc.a(libunwind.o)
 .debug_aranges
                0x00001918       0x20 c:/yagarto-20121222/bin/../lib/gcc/arm-none-eabi/4.7.2\libgcc.a(pr-support.o)
 .debug_aranges
                0x00001938       0x20 c:/yagarto-20121222/bin/../lib/gcc/arm-none-eabi/4.7.2\libgcc.a(_clzsi2.o)
OUTPUT(output/XX-ours-key-with-led.elf elf32-littlearm)

.debug_loc      0x00000000    0x3ed8b
 .debug_loc     0x00000000       0x5c .obj/source/main.o
 .debug_loc     0x0000005c      0x3d1 .obj/source/tester-key-with-led.o
 .debug_loc     0x0000042d       0x61 .obj/source/hardware/hw-beep.o
 .debug_loc     0x0000048e      0x123 .obj/source/hardware/hw-key.o
 .debug_loc     0x000005b1       0xc6 .obj/source/hardware/hw-led.o
 .debug_loc     0x00000677      0x6f1 .obj/source/hardware/s5p6818-alv.o
 .debug_loc     0x00000d68      0x664 .obj/source/hardware/s5p6818-clk.o
 .debug_loc     0x000013cc     0x1892 .obj/source/hardware/s5p6818-fb.o
 .debug_loc     0x00002c5e     0x11db .obj/source/hardware/s5p6818-gpio.o
 .debug_loc     0x00003e39     0x1ff3 .obj/source/hardware/s5p6818-irq.o
 .debug_loc     0x00005e2c      0x60c .obj/source/hardware/s5p6818-pwm.o
 .debug_loc     0x00006438      0x36a .obj/source/hardware/s5p6818-rstcon.o
 .debug_loc     0x000067a2       0xbf .obj/source/hardware/s5p6818-serial-stdio.o
 .debug_loc     0x00006861      0x6f3 .obj/source/hardware/s5p6818-serial.o
 .debug_loc     0x00006f54      0x229 .obj/source/hardware/s5p6818-tick-delay.o
 .debug_loc     0x0000717d       0x61 .obj/source/hardware/s5p6818-tick.o
 .debug_loc     0x000071de      0x4f4 .obj/source/hardware/s5p6818-timer.o
 .debug_loc     0x000076d2      0x2e1 .obj/source/hardware/clk/clk-divider.o
 .debug_loc     0x000079b3      0x1c0 .obj/source/hardware/clk/clk-fixed-factor.o
 .debug_loc     0x00007b73      0x156 .obj/source/hardware/clk/clk-fixed.o
 .debug_loc     0x00007cc9      0x1e1 .obj/source/hardware/clk/clk-gate.o
 .debug_loc     0x00007eaa      0x156 .obj/source/hardware/clk/clk-link.o
 .debug_loc     0x00008000      0x2a5 .obj/source/hardware/clk/clk-mux.o
 .debug_loc     0x000082a5      0x264 .obj/source/hardware/clk/clk-pll.o
 .debug_loc     0x00008509     0x12d7 .obj/source/hardware/clk/clk.o
 .debug_loc     0x000097e0     0x138c .obj/source/hardware/gpio/gpio.o
 .debug_loc     0x0000ab6c      0x6fd .obj/source/hardware/interrupt/interrupt.o
 .debug_loc     0x0000b269      0x444 .obj/source/hardware/pwm/pwm.o
 .debug_loc     0x0000b6ad      0x2ff .obj/source/arm/cp15.o
 .debug_loc     0x0000b9ac       0x21 .obj/source/library/ctype/isalnum.o
 .debug_loc     0x0000b9cd       0x21 .obj/source/library/ctype/isalpha.o
 .debug_loc     0x0000b9ee       0x21 .obj/source/library/ctype/isascii.o
 .debug_loc     0x0000ba0f       0x21 .obj/source/library/ctype/isblank.o
 .debug_loc     0x0000ba30       0x21 .obj/source/library/ctype/iscntrl.o
 .debug_loc     0x0000ba51       0x21 .obj/source/library/ctype/isdigit.o
 .debug_loc     0x0000ba72       0x21 .obj/source/library/ctype/isgraph.o
 .debug_loc     0x0000ba93       0x21 .obj/source/library/ctype/islower.o
 .debug_loc     0x0000bab4       0x21 .obj/source/library/ctype/isprint.o
 .debug_loc     0x0000bad5       0x21 .obj/source/library/ctype/ispunct.o
 .debug_loc     0x0000baf6       0x21 .obj/source/library/ctype/isspace.o
 .debug_loc     0x0000bb17       0x21 .obj/source/library/ctype/isupper.o
 .debug_loc     0x0000bb38       0x21 .obj/source/library/ctype/isxdigit.o
 .debug_loc     0x0000bb59       0x21 .obj/source/library/ctype/toascii.o
 .debug_loc     0x0000bb7a       0x4c .obj/source/library/ctype/tolower.o
 .debug_loc     0x0000bbc6       0x4c .obj/source/library/ctype/toupper.o
 .debug_loc     0x0000bc12       0x2e .obj/source/library/errno/strerror.o
 .debug_loc     0x0000bc40     0x33b3 .obj/source/library/malloc/malloc.o
 .debug_loc     0x0000eff3       0x21 .obj/source/library/stdlib/abs.o
 .debug_loc     0x0000f014       0x21 .obj/source/library/stdlib/atof.o
 .debug_loc     0x0000f035       0x21 .obj/source/library/stdlib/atoi.o
 .debug_loc     0x0000f056       0x21 .obj/source/library/stdlib/atol.o
 .debug_loc     0x0000f077       0x21 .obj/source/library/stdlib/atoll.o
 .debug_loc     0x0000f098      0x148 .obj/source/library/stdlib/bsearch.o
 .debug_loc     0x0000f1e0       0x5c .obj/source/library/stdlib/div.o
 .debug_loc     0x0000f23c       0x21 .obj/source/library/stdlib/labs.o
 .debug_loc     0x0000f25d       0x5c .obj/source/library/stdlib/ldiv.o
 .debug_loc     0x0000f2b9       0x48 .obj/source/library/stdlib/llabs.o
 .debug_loc     0x0000f301       0x48 .obj/source/library/stdlib/lldiv.o
 .debug_loc     0x0000f349     0x1cdc .obj/source/library/stdlib/qsort.o
 .debug_loc     0x00011025       0x6f .obj/source/library/stdlib/rand.o
 .debug_loc     0x00011094       0x84 .obj/source/library/stdlib/strntoimax.o
 .debug_loc     0x00011118      0x2c6 .obj/source/library/stdlib/strntoumax.o
 .debug_loc     0x000113de      0x400 .obj/source/library/stdlib/strtod.o
 .debug_loc     0x000117de      0x3d9 .obj/source/library/stdlib/strtoimax.o
 .debug_loc     0x00011bb7      0x314 .obj/source/library/stdlib/strtol.o
 .debug_loc     0x00011ecb      0x3d9 .obj/source/library/stdlib/strtoll.o
 .debug_loc     0x000122a4      0x20f .obj/source/library/stdlib/strtoul.o
 .debug_loc     0x000124b3      0x30a .obj/source/library/stdlib/strtoull.o
 .debug_loc     0x000127bd      0x2b7 .obj/source/library/stdlib/strtoumax.o
 .debug_loc     0x00012a74       0x97 .obj/source/library/string/memchr.o
 .debug_loc     0x00012b0b      0x11e .obj/source/library/string/memcmp.o
 .debug_loc     0x00012c29       0xbc .obj/source/library/string/memcpy.o
 .debug_loc     0x00012ce5      0x119 .obj/source/library/string/memmove.o
 .debug_loc     0x00012dfe       0x34 .obj/source/library/string/memscan.o
 .debug_loc     0x00012e32      0x2b0 .obj/source/library/string/memset.o
 .debug_loc     0x000130e2       0xa7 .obj/source/library/string/strcasecmp.o
 .debug_loc     0x00013189       0x52 .obj/source/library/string/strcat.o
 .debug_loc     0x000131db       0x3f .obj/source/library/string/strchr.o
 .debug_loc     0x0001321a       0x54 .obj/source/library/string/strcmp.o
 .debug_loc     0x0001326e       0x42 .obj/source/library/string/strcoll.o
 .debug_loc     0x000132b0       0x3e .obj/source/library/string/strcpy.o
 .debug_loc     0x000132ee       0xb1 .obj/source/library/string/strcspn.o
 .debug_loc     0x0001339f       0x51 .obj/source/library/string/strdup.o
 .debug_loc     0x000133f0       0xda .obj/source/library/string/strlcat.o
 .debug_loc     0x000134ca       0xb9 .obj/source/library/string/strlcpy.o
 .debug_loc     0x00013583       0x71 .obj/source/library/string/strlen.o
 .debug_loc     0x000135f4       0xc5 .obj/source/library/string/strncasecmp.o
 .debug_loc     0x000136b9       0xb3 .obj/source/library/string/strncat.o
 .debug_loc     0x0001376c       0xdd .obj/source/library/string/strnchr.o
 .debug_loc     0x00013849      0x184 .obj/source/library/string/strncmp.o
 .debug_loc     0x000139cd       0x87 .obj/source/library/string/strncpy.o
 .debug_loc     0x00013a54      0x18b .obj/source/library/string/strnicmp.o
 .debug_loc     0x00013bdf       0xe9 .obj/source/library/string/strnlen.o
 .debug_loc     0x00013cc8       0x98 .obj/source/library/string/strnstr.o
 .debug_loc     0x00013d60       0x6c .obj/source/library/string/strpbrk.o
 .debug_loc     0x00013dcc       0x8c .obj/source/library/string/strrchr.o
 .debug_loc     0x00013e58       0x72 .obj/source/library/string/strsep.o
 .debug_loc     0x00013eca       0xb9 .obj/source/library/string/strspn.o
 .debug_loc     0x00013f83       0xa3 .obj/source/library/string/strstr.o
 .debug_loc     0x00014026       0x7a .obj/source/library/stdio/snprintf.o
 .debug_loc     0x000140a0       0x59 .obj/source/library/stdio/sprintf.o
 .debug_loc     0x000140f9       0x59 .obj/source/library/stdio/sscanf.o
 .debug_loc     0x00014152     0x2356 .obj/source/library/stdio/vsnprintf.o
 .debug_loc     0x000164a8      0xcbb .obj/source/library/stdio/vsscanf.o
 .debug_loc     0x00017163     0x151a .obj/source/library/math/acos.o
 .debug_loc     0x0001867d     0x10bf .obj/source/library/math/acosf.o
 .debug_loc     0x0001973c      0x8b3 .obj/source/library/math/asin.o
 .debug_loc     0x00019fef      0x5fd .obj/source/library/math/asinf.o
 .debug_loc     0x0001a5ec      0x32d .obj/source/library/math/atan.o
 .debug_loc     0x0001a919      0x464 .obj/source/library/math/atan2.o
 .debug_loc     0x0001ad7d      0x48a .obj/source/library/math/atan2f.o
 .debug_loc     0x0001b207      0x3b7 .obj/source/library/math/atanf.o
 .debug_loc     0x0001b5be      0x188 .obj/source/library/math/ceil.o
 .debug_loc     0x0001b746       0xda .obj/source/library/math/ceilf.o
 .debug_loc     0x0001b820       0x28 .obj/source/library/math/copysign.o
 .debug_loc     0x0001b848       0xa0 .obj/source/library/math/copysignf.o
 .debug_loc     0x0001b8e8      0x15b .obj/source/library/math/cos.o
 .debug_loc     0x0001ba43      0x213 .obj/source/library/math/cosf.o
 .debug_loc     0x0001bc56      0x1d7 .obj/source/library/math/cosh.o
 .debug_loc     0x0001be2d      0x129 .obj/source/library/math/coshf.o
 .debug_loc     0x0001bf56      0x629 .obj/source/library/math/e_rem_pio2.o
 .debug_loc     0x0001c57f      0x4bf .obj/source/library/math/e_rem_pio2f.o
 .debug_loc     0x0001ca3e      0x3ff .obj/source/library/math/exp.o
 .debug_loc     0x0001ce3d      0x309 .obj/source/library/math/expf.o
 .debug_loc     0x0001d146      0x692 .obj/source/library/math/expm1.o
 .debug_loc     0x0001d7d8      0x4ad .obj/source/library/math/expm1f.o
 .debug_loc     0x0001dc85       0x3b .obj/source/library/math/fabsf.o
 .debug_loc     0x0001dcc0      0x1bb .obj/source/library/math/floor.o
 .debug_loc     0x0001de7b      0x124 .obj/source/library/math/floorf.o
 .debug_loc     0x0001df9f      0x6ad .obj/source/library/math/fmod.o
 .debug_loc     0x0001e64c      0x25d .obj/source/library/math/fmodf.o
 .debug_loc     0x0001e8a9       0xe2 .obj/source/library/math/frexp.o
 .debug_loc     0x0001e98b      0x114 .obj/source/library/math/frexpf.o
 .debug_loc     0x0001ea9f      0x6f8 .obj/source/library/math/hypot.o
 .debug_loc     0x0001f197      0x316 .obj/source/library/math/hypotf.o
 .debug_loc     0x0001f4ad      0x2e5 .obj/source/library/math/k_cos.o
 .debug_loc     0x0001f792       0x66 .obj/source/library/math/k_cosf.o
 .debug_loc     0x0001f7f8      0x8f2 .obj/source/library/math/k_rem_pio2.o
 .debug_loc     0x000200ea      0x88f .obj/source/library/math/k_rem_pio2f.o
 .debug_loc     0x00020979       0x70 .obj/source/library/math/k_sin.o
 .debug_loc     0x000209e9       0x90 .obj/source/library/math/k_sinf.o
 .debug_loc     0x00020a79      0x499 .obj/source/library/math/k_tan.o
 .debug_loc     0x00020f12      0x282 .obj/source/library/math/k_tanf.o
 .debug_loc     0x00021194      0x8f9 .obj/source/library/math/log.o
 .debug_loc     0x00021a8d      0x23d .obj/source/library/math/log10.o
 .debug_loc     0x00021cca      0x292 .obj/source/library/math/log10f.o
 .debug_loc     0x00021f5c      0x5a1 .obj/source/library/math/logf.o
 .debug_loc     0x000224fd      0x3a9 .obj/source/library/math/modf.o
 .debug_loc     0x000228a6      0x1aa .obj/source/library/math/modff.o
 .debug_loc     0x00022a50     0x10a6 .obj/source/library/math/pow.o
 .debug_loc     0x00023af6      0xd31 .obj/source/library/math/powf.o
 .debug_loc     0x00024827      0x268 .obj/source/library/math/scalbn.o
 .debug_loc     0x00024a8f      0x2b3 .obj/source/library/math/scalbnf.o
 .debug_loc     0x00024d42      0x121 .obj/source/library/math/sin.o
 .debug_loc     0x00024e63      0x200 .obj/source/library/math/sinf.o
 .debug_loc     0x00025063      0x18f .obj/source/library/math/sinh.o
 .debug_loc     0x000251f2      0x134 .obj/source/library/math/sinhf.o
 .debug_loc     0x00025326      0x391 .obj/source/library/math/sqrt.o
 .debug_loc     0x000256b7      0x232 .obj/source/library/math/sqrtf.o
 .debug_loc     0x000258e9      0x135 .obj/source/library/math/tan.o
 .debug_loc     0x00025a1e      0x1bc .obj/source/library/math/tanf.o
 .debug_loc     0x00025bda      0x19b .obj/source/library/math/tanh.o
 .debug_loc     0x00025d75      0x224 .obj/source/library/math/tanhf.o
 .debug_loc     0x00025f99      0x4b3 .obj/source/graphic/color.o
 .debug_loc     0x0002644c       0x34 .obj/source/graphic/maps.o
 .debug_loc     0x00026480      0x57c .obj/source/graphic/pixel.o
 .debug_loc     0x000269fc     0x18f7 .obj/source/graphic/rect.o
 .debug_loc     0x000282f3      0x73f .obj/source/graphic/surface.o
 .debug_loc     0x00028a32      0x344 .obj/source/graphic/maps/software/sw_blit.o
 .debug_loc     0x00028d76      0x2ba .obj/source/graphic/maps/software/sw_blit_alpha.o
 .debug_loc     0x00029030     0xb847 .obj/source/graphic/maps/software/sw_blit_replace.o
 .debug_loc     0x00034877     0x2a3a .obj/source/graphic/maps/software/sw_fill.o
 .debug_loc     0x000372b1       0x21 .obj/source/graphic/maps/software/sw_hline.o
 .debug_loc     0x000372d2      0x202 .obj/source/graphic/maps/software/sw_point.o
 .debug_loc     0x000374d4     0x2194 .obj/source/graphic/maps/software/sw_rotate.o
 .debug_loc     0x00039668      0xea0 .obj/source/graphic/maps/software/sw_scale.o
 .debug_loc     0x0003a508     0x105d .obj/source/graphic/maps/software/sw_utils.o
 .debug_loc     0x0003b565       0x21 .obj/source/graphic/maps/software/sw_vline.o
 .debug_loc     0x0003b586       0xe0 c:/yagarto-20121222/bin/../lib/gcc/arm-none-eabi/4.7.2\libgcc.a(bpabi.o)
 .debug_loc     0x0003b666      0xb77 c:/yagarto-20121222/bin/../lib/gcc/arm-none-eabi/4.7.2\libgcc.a(_divdi3.o)
 .debug_loc     0x0003c1dd      0xc8c c:/yagarto-20121222/bin/../lib/gcc/arm-none-eabi/4.7.2\libgcc.a(_udivdi3.o)
 .debug_loc     0x0003ce69     0x18d0 c:/yagarto-20121222/bin/../lib/gcc/arm-none-eabi/4.7.2\libgcc.a(unwind-arm.o)
 .debug_loc     0x0003e739      0x652 c:/yagarto-20121222/bin/../lib/gcc/arm-none-eabi/4.7.2\libgcc.a(pr-support.o)

.debug_ranges   0x00000000     0x5b10
 .debug_ranges  0x00000000       0x10 .obj/source/main.o
 .debug_ranges  0x00000010       0x90 .obj/source/tester-key-with-led.o
 .debug_ranges  0x000000a0       0xd0 .obj/source/hardware/hw-key.o
 .debug_ranges  0x00000170      0x118 .obj/source/hardware/s5p6818-alv.o
 .debug_ranges  0x00000288      0x130 .obj/source/hardware/s5p6818-clk.o
 .debug_ranges  0x000003b8      0x360 .obj/source/hardware/s5p6818-fb.o
 .debug_ranges  0x00000718       0x48 .obj/source/hardware/s5p6818-gpio.o
 .debug_ranges  0x00000760      0x608 .obj/source/hardware/s5p6818-irq.o
 .debug_ranges  0x00000d68       0xe8 .obj/source/hardware/s5p6818-pwm.o
 .debug_ranges  0x00000e50       0xf0 .obj/source/hardware/s5p6818-rstcon.o
 .debug_ranges  0x00000f40       0x78 .obj/source/hardware/s5p6818-serial.o
 .debug_ranges  0x00000fb8       0xd8 .obj/source/hardware/s5p6818-timer.o
 .debug_ranges  0x00001090       0x30 .obj/source/hardware/clk/clk-divider.o
 .debug_ranges  0x000010c0       0x30 .obj/source/hardware/clk/clk-gate.o
 .debug_ranges  0x000010f0       0x30 .obj/source/hardware/clk/clk-mux.o
 .debug_ranges  0x00001120      0x210 .obj/source/hardware/clk/clk.o
 .debug_ranges  0x00001330      0x278 .obj/source/hardware/gpio/gpio.o
 .debug_ranges  0x000015a8       0x88 .obj/source/hardware/interrupt/interrupt.o
 .debug_ranges  0x00001630       0x50 .obj/source/hardware/pwm/pwm.o
 .debug_ranges  0x00001680     0x1438 .obj/source/library/malloc/malloc.o
 .debug_ranges  0x00002ab8      0x8a8 .obj/source/library/stdlib/qsort.o
 .debug_ranges  0x00003360       0x48 .obj/source/library/stdlib/rand.o
 .debug_ranges  0x000033a8       0x18 .obj/source/library/stdlib/strntoumax.o
 .debug_ranges  0x000033c0      0x168 .obj/source/library/stdio/vsnprintf.o
 .debug_ranges  0x00003528       0x68 .obj/source/library/stdio/vsscanf.o
 .debug_ranges  0x00003590       0x48 .obj/source/library/math/acos.o
 .debug_ranges  0x000035d8       0x48 .obj/source/library/math/asin.o
 .debug_ranges  0x00003620       0x20 .obj/source/library/math/asinf.o
 .debug_ranges  0x00003640       0x38 .obj/source/library/math/atan.o
 .debug_ranges  0x00003678       0x18 .obj/source/library/math/atan2.o
 .debug_ranges  0x00003690       0x20 .obj/source/library/math/ceil.o
 .debug_ranges  0x000036b0       0x18 .obj/source/library/math/ceilf.o
 .debug_ranges  0x000036c8       0x30 .obj/source/library/math/e_rem_pio2.o
 .debug_ranges  0x000036f8       0x18 .obj/source/library/math/e_rem_pio2f.o
 .debug_ranges  0x00003710       0xa0 .obj/source/library/math/exp.o
 .debug_ranges  0x000037b0       0x50 .obj/source/library/math/expf.o
 .debug_ranges  0x00003800       0x30 .obj/source/library/math/expm1.o
 .debug_ranges  0x00003830       0xb0 .obj/source/library/math/expm1f.o
 .debug_ranges  0x000038e0       0x20 .obj/source/library/math/floor.o
 .debug_ranges  0x00003900       0x18 .obj/source/library/math/floorf.o
 .debug_ranges  0x00003918       0x30 .obj/source/library/math/frexp.o
 .debug_ranges  0x00003948       0x18 .obj/source/library/math/frexpf.o
 .debug_ranges  0x00003960       0xc8 .obj/source/library/math/hypot.o
 .debug_ranges  0x00003a28       0x58 .obj/source/library/math/log.o
 .debug_ranges  0x00003a80       0x48 .obj/source/library/math/log10.o
 .debug_ranges  0x00003ac8       0x18 .obj/source/library/math/log10f.o
 .debug_ranges  0x00003ae0       0x38 .obj/source/library/math/logf.o
 .debug_ranges  0x00003b18       0x90 .obj/source/library/math/modf.o
 .debug_ranges  0x00003ba8       0x18 .obj/source/library/math/modff.o
 .debug_ranges  0x00003bc0      0x100 .obj/source/library/math/pow.o
 .debug_ranges  0x00003cc0       0x48 .obj/source/library/math/powf.o
 .debug_ranges  0x00003d08       0x50 .obj/source/library/math/scalbn.o
 .debug_ranges  0x00003d58       0x20 .obj/source/library/math/scalbnf.o
 .debug_ranges  0x00003d78       0x30 .obj/source/library/math/sqrt.o
 .debug_ranges  0x00003da8       0x18 .obj/source/library/math/tanh.o
 .debug_ranges  0x00003dc0       0x60 .obj/source/graphic/color.o
 .debug_ranges  0x00003e20       0xb0 .obj/source/graphic/rect.o
 .debug_ranges  0x00003ed0       0x30 .obj/source/graphic/surface.o
 .debug_ranges  0x00003f00       0x80 .obj/source/graphic/maps/software/sw_blit_alpha.o
 .debug_ranges  0x00003f80      0xf60 .obj/source/graphic/maps/software/sw_blit_replace.o
 .debug_ranges  0x00004ee0      0x5b0 .obj/source/graphic/maps/software/sw_fill.o
 .debug_ranges  0x00005490       0xf0 .obj/source/graphic/maps/software/sw_rotate.o
 .debug_ranges  0x00005580      0x200 .obj/source/graphic/maps/software/sw_scale.o
 .debug_ranges  0x00005780       0x70 .obj/source/graphic/maps/software/sw_utils.o
 .debug_ranges  0x000057f0       0xc8 c:/yagarto-20121222/bin/../lib/gcc/arm-none-eabi/4.7.2\libgcc.a(_divdi3.o)
 .debug_ranges  0x000058b8       0xd8 c:/yagarto-20121222/bin/../lib/gcc/arm-none-eabi/4.7.2\libgcc.a(_udivdi3.o)
 .debug_ranges  0x00005990      0x138 c:/yagarto-20121222/bin/../lib/gcc/arm-none-eabi/4.7.2\libgcc.a(unwind-arm.o)
 .debug_ranges  0x00005ac8       0x48 c:/yagarto-20121222/bin/../lib/gcc/arm-none-eabi/4.7.2\libgcc.a(pr-support.o)

.debug_str      0x00000000     0x6b1e
 .debug_str     0x00000000      0x1fe .obj/source/main.o
                                0x22a (size before relaxing)
 .debug_str     0x000001fe      0x37a .obj/source/tester-key-with-led.o
                                0x4ac (size before relaxing)
 .debug_str     0x00000578       0x3f .obj/source/hardware/hw-beep.o
                                0x1d9 (size before relaxing)
 .debug_str     0x000005b7       0x7b .obj/source/hardware/hw-key.o
                                0x212 (size before relaxing)
 .debug_str     0x00000632       0x19 .obj/source/hardware/hw-led.o
                                0x219 (size before relaxing)
 .debug_str     0x0000064b      0x300 .obj/source/hardware/s5p6818-alv.o
                                0x540 (size before relaxing)
 .debug_str     0x0000094b      0x71c .obj/source/hardware/s5p6818-clk.o
                                0x8c4 (size before relaxing)
 .debug_str     0x00001067      0xda9 .obj/source/hardware/s5p6818-fb.o
                               0x1530 (size before relaxing)
 .debug_str     0x00001e10      0x1a0 .obj/source/hardware/s5p6818-gpio.o
                                0x4dc (size before relaxing)
 .debug_str     0x00001fb0      0x2d5 .obj/source/hardware/s5p6818-irq.o
                                0x52b (size before relaxing)
 .debug_str     0x00002285       0xd0 .obj/source/hardware/s5p6818-pwm.o
                                0x761 (size before relaxing)
 .debug_str     0x00002355       0x59 .obj/source/hardware/s5p6818-rstcon.o
                                0x1b9 (size before relaxing)
 .debug_str     0x000023ae       0x72 .obj/source/hardware/s5p6818-serial-stdio.o
                                0x186 (size before relaxing)
 .debug_str     0x00002420      0x222 .obj/source/hardware/s5p6818-serial.o
                                0x8be (size before relaxing)
 .debug_str     0x00002642       0x7f .obj/source/hardware/s5p6818-tick-delay.o
                                0x1b2 (size before relaxing)
 .debug_str     0x000026c1       0xc3 .obj/source/hardware/s5p6818-tick.o
                                0x28e (size before relaxing)
 .debug_str     0x00002784       0x4c .obj/source/hardware/s5p6818-timer.o
                                0x6b3 (size before relaxing)
 .debug_str     0x000027d0      0x157 .obj/source/hardware/clk/clk-divider.o
                                0x3c2 (size before relaxing)
 .debug_str     0x00002927      0x11e .obj/source/hardware/clk/clk-fixed-factor.o
                                0x358 (size before relaxing)
 .debug_str     0x00002a45       0x9a .obj/source/hardware/clk/clk-fixed.o
                                0x306 (size before relaxing)
 .debug_str     0x00002adf       0x98 .obj/source/hardware/clk/clk-gate.o
                                0x365 (size before relaxing)
 .debug_str     0x00002b77       0xc9 .obj/source/hardware/clk/clk-link.o
                                0x303 (size before relaxing)
 .debug_str     0x00002c40       0x91 .obj/source/hardware/clk/clk-mux.o
                                0x377 (size before relaxing)
 .debug_str     0x00002cd1       0x8c .obj/source/hardware/clk/clk-pll.o
                                0x2f9 (size before relaxing)
 .debug_str     0x00002d5d       0x8e .obj/source/hardware/clk/clk.o
                                0x315 (size before relaxing)
 .debug_str     0x00002deb       0xb9 .obj/source/hardware/gpio/gpio.o
                                0x471 (size before relaxing)
 .debug_str     0x00002ea4       0x7f .obj/source/hardware/interrupt/interrupt.o
                                0x2e5 (size before relaxing)
 .debug_str     0x00002f23       0x30 .obj/source/hardware/pwm/pwm.o
                                0x256 (size before relaxing)
 .debug_str     0x00002f53      0x143 .obj/source/arm/cp15.o
                                0x29e (size before relaxing)
 .debug_str     0x00003096       0x2b .obj/source/library/ctype/ctype.o
                                 0xbb (size before relaxing)
 .debug_str     0x000030c1       0x27 .obj/source/library/ctype/isalnum.o
                                 0xbc (size before relaxing)
 .debug_str     0x000030e8       0x27 .obj/source/library/ctype/isalpha.o
                                 0xbc (size before relaxing)
 .debug_str     0x0000310f       0x27 .obj/source/library/ctype/isascii.o
                                 0xa9 (size before relaxing)
 .debug_str     0x00003136       0x27 .obj/source/library/ctype/isblank.o
                                 0xa9 (size before relaxing)
 .debug_str     0x0000315d       0x27 .obj/source/library/ctype/iscntrl.o
                                 0xbc (size before relaxing)
 .debug_str     0x00003184       0x27 .obj/source/library/ctype/isdigit.o
                                 0xbc (size before relaxing)
 .debug_str     0x000031ab       0x27 .obj/source/library/ctype/isgraph.o
                                 0xbc (size before relaxing)
 .debug_str     0x000031d2       0x27 .obj/source/library/ctype/islower.o
                                 0xbc (size before relaxing)
 .debug_str     0x000031f9       0x27 .obj/source/library/ctype/isprint.o
                                 0xbc (size before relaxing)
 .debug_str     0x00003220       0x27 .obj/source/library/ctype/ispunct.o
                                 0xbc (size before relaxing)
 .debug_str     0x00003247       0x27 .obj/source/library/ctype/isspace.o
                                 0xbc (size before relaxing)
 .debug_str     0x0000326e       0x27 .obj/source/library/ctype/isupper.o
                                 0xbc (size before relaxing)
 .debug_str     0x00003295       0x29 .obj/source/library/ctype/isxdigit.o
                                 0xbe (size before relaxing)
 .debug_str     0x000032be       0x27 .obj/source/library/ctype/toascii.o
                                 0xa9 (size before relaxing)
 .debug_str     0x000032e5       0x27 .obj/source/library/ctype/tolower.o
                                 0xb1 (size before relaxing)
 .debug_str     0x0000330c       0x27 .obj/source/library/ctype/toupper.o
                                 0xb1 (size before relaxing)
 .debug_str     0x00003333       0x3e .obj/source/library/errno/errno.o
                                 0xc0 (size before relaxing)
 .debug_str     0x00003371      0x113 .obj/source/library/errno/strerror.o
                                0x19a (size before relaxing)
 .debug_str     0x00003484       0x22 .obj/source/library/exit/abort.o
                                 0xa4 (size before relaxing)
 .debug_str     0x000034a6       0x35 .obj/source/library/exit/assert.o
                                 0xc6 (size before relaxing)
 .debug_str     0x000034db       0x1b .obj/source/library/exit/exit.o
                                 0xa9 (size before relaxing)
 .debug_str     0x000034f6      0x5cc .obj/source/library/malloc/malloc.o
                                0x766 (size before relaxing)
 .debug_str     0x00003ac2       0x1c .obj/source/library/stdlib/abs.o
                                0x110 (size before relaxing)
 .debug_str     0x00003ade       0x2e .obj/source/library/stdlib/atof.o
                                0x12e (size before relaxing)
 .debug_str     0x00003b0c       0x29 .obj/source/library/stdlib/atoi.o
                                0x127 (size before relaxing)
 .debug_str     0x00003b35       0x22 .obj/source/library/stdlib/atol.o
                                0x127 (size before relaxing)
 .debug_str     0x00003b57       0x2c .obj/source/library/stdlib/atoll.o
                                0x12a (size before relaxing)
 .debug_str     0x00003b83       0x3a .obj/source/library/stdlib/bsearch.o
                                0x145 (size before relaxing)
 .debug_str     0x00003bbd       0x21 .obj/source/library/stdlib/div.o
                                0x11b (size before relaxing)
 .debug_str     0x00003bde       0x1d .obj/source/library/stdlib/labs.o
                                0x116 (size before relaxing)
 .debug_str     0x00003bfb       0x1d .obj/source/library/stdlib/ldiv.o
                                0x122 (size before relaxing)
 .debug_str     0x00003c18       0x24 .obj/source/library/stdlib/llabs.o
                                0x118 (size before relaxing)
 .debug_str     0x00003c3c       0x2c .obj/source/library/stdlib/lldiv.o
                                0x125 (size before relaxing)
 .debug_str     0x00003c68       0x44 .obj/source/library/stdlib/qsort.o
                                0x149 (size before relaxing)
 .debug_str     0x00003cac       0x56 .obj/source/library/stdlib/rand.o
                                0x16f (size before relaxing)
 .debug_str     0x00003d02       0x4a .obj/source/library/stdlib/strntoimax.o
                                0x15d (size before relaxing)
 .debug_str     0x00003d4c       0x32 .obj/source/library/stdlib/strntoumax.o
                                0x160 (size before relaxing)
 .debug_str     0x00003d7e       0x49 .obj/source/library/stdlib/strtod.o
                                0x26e (size before relaxing)
 .debug_str     0x00003dc7       0x3a .obj/source/library/stdlib/strtoimax.o
                                0x268 (size before relaxing)
 .debug_str     0x00003e01       0x1f .obj/source/library/stdlib/strtol.o
                                0x259 (size before relaxing)
 .debug_str     0x00003e20       0x20 .obj/source/library/stdlib/strtoll.o
                                0x25b (size before relaxing)
 .debug_str     0x00003e40       0x28 .obj/source/library/stdlib/strtoul.o
                                0x26d (size before relaxing)
 .debug_str     0x00003e68       0x2a .obj/source/library/stdlib/strtoull.o
                                0x25d (size before relaxing)
 .debug_str     0x00003e92       0x2c .obj/source/library/stdlib/strtoumax.o
                                0x269 (size before relaxing)
 .debug_str     0x00003ebe       0x26 .obj/source/library/string/memchr.o
                                0x121 (size before relaxing)
 .debug_str     0x00003ee4       0x28 .obj/source/library/string/memcmp.o
                                0x123 (size before relaxing)
 .debug_str     0x00003f0c       0x2d .obj/source/library/string/memcpy.o
                                0x12d (size before relaxing)
 .debug_str     0x00003f39       0x2a .obj/source/library/string/memmove.o
                                0x12f (size before relaxing)
 .debug_str     0x00003f63       0x28 .obj/source/library/string/memscan.o
                                0x12d (size before relaxing)
 .debug_str     0x00003f8b       0x28 .obj/source/library/string/memset.o
                                0x128 (size before relaxing)
 .debug_str     0x00003fb3       0x2e .obj/source/library/string/strcasecmp.o
                                0x12f (size before relaxing)
 .debug_str     0x00003fe1       0x26 .obj/source/library/string/strcat.o
                                0x124 (size before relaxing)
 .debug_str     0x00004007       0x26 .obj/source/library/string/strchr.o
                                0x11f (size before relaxing)
 .debug_str     0x0000402d       0x28 .obj/source/library/string/strcmp.o
                                0x121 (size before relaxing)
 .debug_str     0x00004055       0x28 .obj/source/library/string/strcoll.o
                                0x128 (size before relaxing)
 .debug_str     0x0000407d       0x26 .obj/source/library/string/strcpy.o
                                0x124 (size before relaxing)
 .debug_str     0x000040a3       0x2f .obj/source/library/string/strcspn.o
                                0x135 (size before relaxing)
 .debug_str     0x000040d2       0x26 .obj/source/library/string/strdup.o
                                0x144 (size before relaxing)
 .debug_str     0x000040f8       0x28 .obj/source/library/string/strlcat.o
                                0x14a (size before relaxing)
 .debug_str     0x00004120       0x28 .obj/source/library/string/strlcpy.o
                                0x144 (size before relaxing)
 .debug_str     0x00004148       0x1f .obj/source/library/string/strlen.o
                                0x126 (size before relaxing)
 .debug_str     0x00004167       0x30 .obj/source/library/string/strncasecmp.o
                                0x138 (size before relaxing)
 .debug_str     0x00004197       0x28 .obj/source/library/string/strncat.o
                                0x12d (size before relaxing)
 .debug_str     0x000041bf       0x28 .obj/source/library/string/strnchr.o
                                0x128 (size before relaxing)
 .debug_str     0x000041e7       0x30 .obj/source/library/string/strncmp.o
                                0x130 (size before relaxing)
 .debug_str     0x00004217       0x28 .obj/source/library/string/strncpy.o
                                0x12d (size before relaxing)
 .debug_str     0x0000423f       0x2a .obj/source/library/string/strnicmp.o
                                0x132 (size before relaxing)
 .debug_str     0x00004269       0x28 .obj/source/library/string/strnlen.o
                                0x128 (size before relaxing)
 .debug_str     0x00004291       0x28 .obj/source/library/string/strnstr.o
                                0x136 (size before relaxing)
 .debug_str     0x000042b9       0x28 .obj/source/library/string/strpbrk.o
                                0x121 (size before relaxing)
 .debug_str     0x000042e1       0x28 .obj/source/library/string/strrchr.o
                                0x12f (size before relaxing)
 .debug_str     0x00004309       0x2d .obj/source/library/string/strsep.o
                                0x12e (size before relaxing)
 .debug_str     0x00004336       0x2d .obj/source/library/string/strspn.o
                                0x133 (size before relaxing)
 .debug_str     0x00004363       0x26 .obj/source/library/string/strstr.o
                                0x134 (size before relaxing)
 .debug_str     0x00004389       0x20 .obj/source/library/stdio/snprintf.o
                                0x14a (size before relaxing)
 .debug_str     0x000043a9       0x27 .obj/source/library/stdio/sprintf.o
                                0x148 (size before relaxing)
 .debug_str     0x000043d0       0x26 .obj/source/library/stdio/sscanf.o
                                0x13d (size before relaxing)
 .debug_str     0x000043f6      0x1c5 .obj/source/library/stdio/vsnprintf.o
                                0x36b (size before relaxing)
 .debug_str     0x000045bb       0xea .obj/source/library/stdio/vsscanf.o
                                0x2e6 (size before relaxing)
 .debug_str     0x000046a5       0x5c .obj/source/library/math/acos.o
                                0x16f (size before relaxing)
 .debug_str     0x00004701       0x22 .obj/source/library/math/acosf.o
                                0x139 (size before relaxing)
 .debug_str     0x00004723       0x28 .obj/source/library/math/asin.o
                                0x17c (size before relaxing)
 .debug_str     0x0000474b       0x3d .obj/source/library/math/asinf.o
                                0x172 (size before relaxing)
 .debug_str     0x00004788       0x2e .obj/source/library/math/atan.o
                                0x176 (size before relaxing)
 .debug_str     0x000047b6       0x4a .obj/source/library/math/atan2.o
                                0x184 (size before relaxing)
 .debug_str     0x00004800       0x2a .obj/source/library/math/atan2f.o
                                0x17b (size before relaxing)
 .debug_str     0x0000482a       0x1c .obj/source/library/math/atanf.o
                                0x171 (size before relaxing)
 .debug_str     0x00004846       0x25 .obj/source/library/math/ceil.o
                                0x15f (size before relaxing)
 .debug_str     0x0000486b       0x22 .obj/source/library/math/ceilf.o
                                0x15a (size before relaxing)
 .debug_str     0x0000488d       0x28 .obj/source/library/math/copysign.o
                                0x157 (size before relaxing)
 .debug_str     0x000048b5       0x2f .obj/source/library/math/copysignf.o
                                0x157 (size before relaxing)
 .debug_str     0x000048e4       0x47 .obj/source/library/math/cos.o
                                0x185 (size before relaxing)
 .debug_str     0x0000492b       0x69 .obj/source/library/math/cosf.o
                                0x17e (size before relaxing)
 .debug_str     0x00004994       0x2b .obj/source/library/math/cosh.o
                                0x16a (size before relaxing)
 .debug_str     0x000049bf       0x29 .obj/source/library/math/coshf.o
                                0x13f (size before relaxing)
 .debug_str     0x000049e8       0x88 .obj/source/library/math/e_rem_pio2.o
                                0x1f2 (size before relaxing)
 .debug_str     0x00004a70       0x22 .obj/source/library/math/e_rem_pio2f.o
                                0x1bc (size before relaxing)
 .debug_str     0x00004a92       0x53 .obj/source/library/math/exp.o
                                0x1a0 (size before relaxing)
 .debug_str     0x00004ae5       0x23 .obj/source/library/math/expf.o
                                0x199 (size before relaxing)
 .debug_str     0x00004b08       0x2a .obj/source/library/math/expm1.o
                                0x191 (size before relaxing)
 .debug_str     0x00004b32       0x1d .obj/source/library/math/expm1f.o
                                0x182 (size before relaxing)
 .debug_str     0x00004b4f       0x20 .obj/source/library/math/fabs.o
                                0x154 (size before relaxing)
 .debug_str     0x00004b6f       0x22 .obj/source/library/math/fabsf.o
                                0x129 (size before relaxing)
 .debug_str     0x00004b91       0x22 .obj/source/library/math/floor.o
                                0x161 (size before relaxing)
 .debug_str     0x00004bb3       0x24 .obj/source/library/math/floorf.o
                                0x15c (size before relaxing)
 .debug_str     0x00004bd7       0x25 .obj/source/library/math/fmod.o
                                0x168 (size before relaxing)
 .debug_str     0x00004bfc       0x22 .obj/source/library/math/fmodf.o
                                0x13d (size before relaxing)
 .debug_str     0x00004c1e       0x2d .obj/source/library/math/frexp.o
                                0x16c (size before relaxing)
 .debug_str     0x00004c4b       0x2a .obj/source/library/math/frexpf.o
                                0x162 (size before relaxing)
 .debug_str     0x00004c75       0x22 .obj/source/library/math/hypot.o
                                0x166 (size before relaxing)
 .debug_str     0x00004c97       0x24 .obj/source/library/math/hypotf.o
                                0x12b (size before relaxing)
 .debug_str     0x00004cbb       0x1c .obj/source/library/math/k_cos.o
                                0x12a (size before relaxing)
 .debug_str     0x00004cd7       0x1d .obj/source/library/math/k_cosf.o
                                0x12d (size before relaxing)
 .debug_str     0x00004cf4       0x52 .obj/source/library/math/k_rem_pio2.o
                                0x18a (size before relaxing)
 .debug_str     0x00004d46       0x48 .obj/source/library/math/k_rem_pio2f.o
                                0x18c (size before relaxing)
 .debug_str     0x00004d8e       0x1c .obj/source/library/math/k_sin.o
                                0x12f (size before relaxing)
 .debug_str     0x00004daa       0x1d .obj/source/library/math/k_sinf.o
                                0x12d (size before relaxing)
 .debug_str     0x00004dc7       0x29 .obj/source/library/math/k_tan.o
                                0x167 (size before relaxing)
 .debug_str     0x00004df0       0x2c .obj/source/library/math/k_tanf.o
                                0x136 (size before relaxing)
 .debug_str     0x00004e1c       0x1f .obj/source/library/math/log.o
                                0x177 (size before relaxing)
 .debug_str     0x00004e3b       0x3d .obj/source/library/math/log10.o
                                0x187 (size before relaxing)
 .debug_str     0x00004e78       0x29 .obj/source/library/math/log10f.o
                                0x182 (size before relaxing)
 .debug_str     0x00004ea1       0x1b .obj/source/library/math/logf.o
                                0x176 (size before relaxing)
 .debug_str     0x00004ebc       0x20 .obj/source/library/math/modf.o
                                0x169 (size before relaxing)
 .debug_str     0x00004edc       0x22 .obj/source/library/math/modff.o
                                0x15f (size before relaxing)
 .debug_str     0x00004efe       0x5d .obj/source/library/math/pow.o
                                0x1c0 (size before relaxing)
 .debug_str     0x00004f5b       0x20 .obj/source/library/math/powf.o
                                0x1bb (size before relaxing)
 .debug_str     0x00004f7b       0x2a .obj/source/library/math/scalbn.o
                                0x180 (size before relaxing)
 .debug_str     0x00004fa5       0x2c .obj/source/library/math/scalbnf.o
                                0x17c (size before relaxing)
 .debug_str     0x00004fd1       0x1a .obj/source/library/math/sin.o
                                0x185 (size before relaxing)
 .debug_str     0x00004feb       0x37 .obj/source/library/math/sinf.o
                                0x17e (size before relaxing)
 .debug_str     0x00005022       0x26 .obj/source/library/math/sinh.o
                                0x166 (size before relaxing)
 .debug_str     0x00005048       0x22 .obj/source/library/math/sinhf.o
                                0x13b (size before relaxing)
 .debug_str     0x0000506a       0x20 .obj/source/library/math/sqrt.o
                                0x164 (size before relaxing)
 .debug_str     0x0000508a       0x22 .obj/source/library/math/sqrtf.o
                                0x15f (size before relaxing)
 .debug_str     0x000050ac       0x1a .obj/source/library/math/tan.o
                                0x178 (size before relaxing)
 .debug_str     0x000050c6       0x37 .obj/source/library/math/tanf.o
                                0x16f (size before relaxing)
 .debug_str     0x000050fd       0x20 .obj/source/library/math/tanh.o
                                0x160 (size before relaxing)
 .debug_str     0x0000511d       0x22 .obj/source/library/math/tanhf.o
                                0x166 (size before relaxing)
 .debug_str     0x0000513f       0x8b .obj/source/graphic/color.o
                                0x1e5 (size before relaxing)
 .debug_str     0x000051ca       0x16 .obj/source/graphic/maps.o
                                0x42a (size before relaxing)
 .debug_str     0x000051e0       0x38 .obj/source/graphic/pixel.o
                                0x305 (size before relaxing)
 .debug_str     0x00005218      0x24f .obj/source/graphic/rect.o
                                0x386 (size before relaxing)
 .debug_str     0x00005467       0xee .obj/source/graphic/surface.o
                                0x59a (size before relaxing)
 .debug_str     0x00005555       0x61 .obj/source/graphic/maps/software/sw_blit.o
                                0x47b (size before relaxing)
 .debug_str     0x000055b6       0x77 .obj/source/graphic/maps/software/sw_blit_alpha.o
                                0x4bf (size before relaxing)
 .debug_str     0x0000562d      0x5a8 .obj/source/graphic/maps/software/sw_blit_replace.o
                                0xa2b (size before relaxing)
 .debug_str     0x00005bd5       0xed .obj/source/graphic/maps/software/sw_fill.o
                                0x5a7 (size before relaxing)
 .debug_str     0x00005cc2       0x3b .obj/source/graphic/maps/software/sw_hline.o
                                0x44b (size before relaxing)
 .debug_str     0x00005cfd       0x5b .obj/source/graphic/maps/software/sw_point.o
                                0x494 (size before relaxing)
 .debug_str     0x00005d58       0x95 .obj/source/graphic/maps/software/sw_rotate.o
                                0x4f5 (size before relaxing)
 .debug_str     0x00005ded       0x8f .obj/source/graphic/maps/software/sw_scale.o
                                0x4da (size before relaxing)
 .debug_str     0x00005e7c       0x28 .obj/source/graphic/maps/software/sw_utils.o
                                0x4c9 (size before relaxing)
 .debug_str     0x00005ea4       0x3b .obj/source/graphic/maps/software/sw_vline.o
                                0x44b (size before relaxing)
 .debug_str     0x00005edf       0xb6 c:/yagarto-20121222/bin/../lib/gcc/arm-none-eabi/4.7.2\libgcc.a(bpabi.o)
                                 0xe7 (size before relaxing)
 .debug_str     0x00005f95       0x9c c:/yagarto-20121222/bin/../lib/gcc/arm-none-eabi/4.7.2\libgcc.a(_divdi3.o)
                                0x19b (size before relaxing)
 .debug_str     0x00000000      0x19c c:/yagarto-20121222/bin/../lib/gcc/arm-none-eabi/4.7.2\libgcc.a(_udivdi3.o)
 .debug_str     0x00006031      0xa13 c:/yagarto-20121222/bin/../lib/gcc/arm-none-eabi/4.7.2\libgcc.a(unwind-arm.o)
                                0xb77 (size before relaxing)
 .debug_str     0x00006a44       0xda c:/yagarto-20121222/bin/../lib/gcc/arm-none-eabi/4.7.2\libgcc.a(pr-support.o)
                                0x4d6 (size before relaxing)

.debug_frame    0x00000000     0x3840
 .debug_frame   0x00000000       0x2c .obj/source/main.o
 .debug_frame   0x0000002c      0x1a8 .obj/source/tester-key-with-led.o
 .debug_frame   0x000001d4       0x40 .obj/source/hardware/hw-beep.o
 .debug_frame   0x00000214       0x60 .obj/source/hardware/hw-key.o
 .debug_frame   0x00000274       0x38 .obj/source/hardware/hw-led.o
 .debug_frame   0x000002ac       0xf0 .obj/source/hardware/s5p6818-alv.o
 .debug_frame   0x0000039c       0x7c .obj/source/hardware/s5p6818-clk.o
 .debug_frame   0x00000418       0xd8 .obj/source/hardware/s5p6818-fb.o
 .debug_frame   0x000004f0      0x104 .obj/source/hardware/s5p6818-gpio.o
 .debug_frame   0x000005f4      0x150 .obj/source/hardware/s5p6818-irq.o
 .debug_frame   0x00000744       0x94 .obj/source/hardware/s5p6818-pwm.o
 .debug_frame   0x000007d8       0x3c .obj/source/hardware/s5p6818-rstcon.o
 .debug_frame   0x00000814       0x3c .obj/source/hardware/s5p6818-serial-stdio.o
 .debug_frame   0x00000850       0xa8 .obj/source/hardware/s5p6818-serial.o
 .debug_frame   0x000008f8       0x78 .obj/source/hardware/s5p6818-tick-delay.o
 .debug_frame   0x00000970       0x64 .obj/source/hardware/s5p6818-tick.o
 .debug_frame   0x000009d4       0xa4 .obj/source/hardware/s5p6818-timer.o
 .debug_frame   0x00000a78       0xb4 .obj/source/hardware/clk/clk-divider.o
 .debug_frame   0x00000b2c       0xb0 .obj/source/hardware/clk/clk-fixed-factor.o
 .debug_frame   0x00000bdc       0xa4 .obj/source/hardware/clk/clk-fixed.o
 .debug_frame   0x00000c80       0xa4 .obj/source/hardware/clk/clk-gate.o
 .debug_frame   0x00000d24       0xa4 .obj/source/hardware/clk/clk-link.o
 .debug_frame   0x00000dc8       0xb0 .obj/source/hardware/clk/clk-mux.o
 .debug_frame   0x00000e78       0xb8 .obj/source/hardware/clk/clk-pll.o
 .debug_frame   0x00000f30      0x164 .obj/source/hardware/clk/clk.o
 .debug_frame   0x00001094      0x210 .obj/source/hardware/gpio/gpio.o
 .debug_frame   0x000012a4       0xdc .obj/source/hardware/interrupt/interrupt.o
 .debug_frame   0x00001380       0xbc .obj/source/hardware/pwm/pwm.o
 .debug_frame   0x0000143c      0x1d0 .obj/source/arm/cp15.o
 .debug_frame   0x0000160c       0x20 .obj/source/library/ctype/isalnum.o
 .debug_frame   0x0000162c       0x20 .obj/source/library/ctype/isalpha.o
 .debug_frame   0x0000164c       0x20 .obj/source/library/ctype/isascii.o
 .debug_frame   0x0000166c       0x20 .obj/source/library/ctype/isblank.o
 .debug_frame   0x0000168c       0x20 .obj/source/library/ctype/iscntrl.o
 .debug_frame   0x000016ac       0x20 .obj/source/library/ctype/isdigit.o
 .debug_frame   0x000016cc       0x20 .obj/source/library/ctype/isgraph.o
 .debug_frame   0x000016ec       0x20 .obj/source/library/ctype/islower.o
 .debug_frame   0x0000170c       0x20 .obj/source/library/ctype/isprint.o
 .debug_frame   0x0000172c       0x20 .obj/source/library/ctype/ispunct.o
 .debug_frame   0x0000174c       0x20 .obj/source/library/ctype/isspace.o
 .debug_frame   0x0000176c       0x20 .obj/source/library/ctype/isupper.o
 .debug_frame   0x0000178c       0x20 .obj/source/library/ctype/isxdigit.o
 .debug_frame   0x000017ac       0x20 .obj/source/library/ctype/toascii.o
 .debug_frame   0x000017cc       0x28 .obj/source/library/ctype/tolower.o
 .debug_frame   0x000017f4       0x28 .obj/source/library/ctype/toupper.o
 .debug_frame   0x0000181c       0x20 .obj/source/library/errno/errno.o
 .debug_frame   0x0000183c       0x20 .obj/source/library/errno/strerror.o
 .debug_frame   0x0000185c       0x20 .obj/source/library/exit/abort.o
 .debug_frame   0x0000187c       0x20 .obj/source/library/exit/assert.o
 .debug_frame   0x0000189c       0x20 .obj/source/library/exit/exit.o
 .debug_frame   0x000018bc      0x1b0 .obj/source/library/malloc/malloc.o
 .debug_frame   0x00001a6c       0x20 .obj/source/library/stdlib/abs.o
 .debug_frame   0x00001a8c       0x20 .obj/source/library/stdlib/atof.o
 .debug_frame   0x00001aac       0x20 .obj/source/library/stdlib/atoi.o
 .debug_frame   0x00001acc       0x20 .obj/source/library/stdlib/atol.o
 .debug_frame   0x00001aec       0x20 .obj/source/library/stdlib/atoll.o
 .debug_frame   0x00001b0c       0x38 .obj/source/library/stdlib/bsearch.o
 .debug_frame   0x00001b44       0x2c .obj/source/library/stdlib/div.o
 .debug_frame   0x00001b70       0x20 .obj/source/library/stdlib/labs.o
 .debug_frame   0x00001b90       0x2c .obj/source/library/stdlib/ldiv.o
 .debug_frame   0x00001bbc       0x28 .obj/source/library/stdlib/llabs.o
 .debug_frame   0x00001be4       0x30 .obj/source/library/stdlib/lldiv.o
 .debug_frame   0x00001c14       0x3c .obj/source/library/stdlib/qsort.o
 .debug_frame   0x00001c50       0x3c .obj/source/library/stdlib/rand.o
 .debug_frame   0x00001c8c       0x20 .obj/source/library/stdlib/strntoimax.o
 .debug_frame   0x00001cac       0x38 .obj/source/library/stdlib/strntoumax.o
 .debug_frame   0x00001ce4       0x30 .obj/source/library/stdlib/strtod.o
 .debug_frame   0x00001d14       0x38 .obj/source/library/stdlib/strtoimax.o
 .debug_frame   0x00001d4c       0x38 .obj/source/library/stdlib/strtol.o
 .debug_frame   0x00001d84       0x38 .obj/source/library/stdlib/strtoll.o
 .debug_frame   0x00001dbc       0x38 .obj/source/library/stdlib/strtoul.o
 .debug_frame   0x00001df4       0x38 .obj/source/library/stdlib/strtoull.o
 .debug_frame   0x00001e2c       0x38 .obj/source/library/stdlib/strtoumax.o
 .debug_frame   0x00001e64       0x20 .obj/source/library/string/memchr.o
 .debug_frame   0x00001e84       0x28 .obj/source/library/string/memcmp.o
 .debug_frame   0x00001eac       0x2c .obj/source/library/string/memcpy.o
 .debug_frame   0x00001ed8       0x2c .obj/source/library/string/memmove.o
 .debug_frame   0x00001f04       0x20 .obj/source/library/string/memscan.o
 .debug_frame   0x00001f24       0x30 .obj/source/library/string/memset.o
 .debug_frame   0x00001f54       0x2c .obj/source/library/string/strcasecmp.o
 .debug_frame   0x00001f80       0x20 .obj/source/library/string/strcat.o
 .debug_frame   0x00001fa0       0x20 .obj/source/library/string/strchr.o
 .debug_frame   0x00001fc0       0x20 .obj/source/library/string/strcmp.o
 .debug_frame   0x00001fe0       0x20 .obj/source/library/string/strcoll.o
 .debug_frame   0x00002000       0x20 .obj/source/library/string/strcpy.o
 .debug_frame   0x00002020       0x28 .obj/source/library/string/strcspn.o
 .debug_frame   0x00002048       0x2c .obj/source/library/string/strdup.o
 .debug_frame   0x00002074       0x30 .obj/source/library/string/strlcat.o
 .debug_frame   0x000020a4       0x30 .obj/source/library/string/strlcpy.o
 .debug_frame   0x000020d4       0x20 .obj/source/library/string/strlen.o
 .debug_frame   0x000020f4       0x30 .obj/source/library/string/strncasecmp.o
 .debug_frame   0x00002124       0x28 .obj/source/library/string/strncat.o
 .debug_frame   0x0000214c       0x28 .obj/source/library/string/strnchr.o
 .debug_frame   0x00002174       0x28 .obj/source/library/string/strncmp.o
 .debug_frame   0x0000219c       0x28 .obj/source/library/string/strncpy.o
 .debug_frame   0x000021c4       0x30 .obj/source/library/string/strnicmp.o
 .debug_frame   0x000021f4       0x28 .obj/source/library/string/strnlen.o
 .debug_frame   0x0000221c       0x30 .obj/source/library/string/strnstr.o
 .debug_frame   0x0000224c       0x28 .obj/source/library/string/strpbrk.o
 .debug_frame   0x00002274       0x2c .obj/source/library/string/strrchr.o
 .debug_frame   0x000022a0       0x2c .obj/source/library/string/strsep.o
 .debug_frame   0x000022cc       0x28 .obj/source/library/string/strspn.o
 .debug_frame   0x000022f4       0x30 .obj/source/library/string/strstr.o
 .debug_frame   0x00002324       0x30 .obj/source/library/stdio/snprintf.o
 .debug_frame   0x00002354       0x34 .obj/source/library/stdio/sprintf.o
 .debug_frame   0x00002388       0x34 .obj/source/library/stdio/sscanf.o
 .debug_frame   0x000023bc       0xa8 .obj/source/library/stdio/vsnprintf.o
 .debug_frame   0x00002464       0x3c .obj/source/library/stdio/vsscanf.o
 .debug_frame   0x000024a0       0x20 .obj/source/library/math/acos.o
 .debug_frame   0x000024c0       0x20 .obj/source/library/math/acosf.o
 .debug_frame   0x000024e0       0x20 .obj/source/library/math/asin.o
 .debug_frame   0x00002500       0x20 .obj/source/library/math/asinf.o
 .debug_frame   0x00002520       0x20 .obj/source/library/math/atan.o
 .debug_frame   0x00002540       0x34 .obj/source/library/math/atan2.o
 .debug_frame   0x00002574       0x30 .obj/source/library/math/atan2f.o
 .debug_frame   0x000025a4       0x20 .obj/source/library/math/atanf.o
 .debug_frame   0x000025c4       0x30 .obj/source/library/math/ceil.o
 .debug_frame   0x000025f4       0x20 .obj/source/library/math/ceilf.o
 .debug_frame   0x00002614       0x20 .obj/source/library/math/copysign.o
 .debug_frame   0x00002634       0x20 .obj/source/library/math/copysignf.o
 .debug_frame   0x00002654       0x28 .obj/source/library/math/cos.o
 .debug_frame   0x0000267c       0x28 .obj/source/library/math/cosf.o
 .debug_frame   0x000026a4       0x30 .obj/source/library/math/cosh.o
 .debug_frame   0x000026d4       0x30 .obj/source/library/math/coshf.o
 .debug_frame   0x00002704       0x34 .obj/source/library/math/e_rem_pio2.o
 .debug_frame   0x00002738       0x30 .obj/source/library/math/e_rem_pio2f.o
 .debug_frame   0x00002768       0x20 .obj/source/library/math/exp.o
 .debug_frame   0x00002788       0x20 .obj/source/library/math/expf.o
 .debug_frame   0x000027a8       0x20 .obj/source/library/math/expm1.o
 .debug_frame   0x000027c8       0x20 .obj/source/library/math/expm1f.o
 .debug_frame   0x000027e8       0x20 .obj/source/library/math/fabs.o
 .debug_frame   0x00002808       0x20 .obj/source/library/math/fabsf.o
 .debug_frame   0x00002828       0x2c .obj/source/library/math/floor.o
 .debug_frame   0x00002854       0x20 .obj/source/library/math/floorf.o
 .debug_frame   0x00002874       0x30 .obj/source/library/math/fmod.o
 .debug_frame   0x000028a4       0x28 .obj/source/library/math/fmodf.o
 .debug_frame   0x000028cc       0x28 .obj/source/library/math/frexp.o
 .debug_frame   0x000028f4       0x28 .obj/source/library/math/frexpf.o
 .debug_frame   0x0000291c       0x30 .obj/source/library/math/hypot.o
 .debug_frame   0x0000294c       0x2c .obj/source/library/math/hypotf.o
 .debug_frame   0x00002978       0x20 .obj/source/library/math/k_cos.o
 .debug_frame   0x00002998       0x20 .obj/source/library/math/k_cosf.o
 .debug_frame   0x000029b8       0x54 .obj/source/library/math/k_rem_pio2.o
 .debug_frame   0x00002a0c       0x54 .obj/source/library/math/k_rem_pio2f.o
 .debug_frame   0x00002a60       0x20 .obj/source/library/math/k_sin.o
 .debug_frame   0x00002a80       0x20 .obj/source/library/math/k_sinf.o
 .debug_frame   0x00002aa0       0x20 .obj/source/library/math/k_tan.o
 .debug_frame   0x00002ac0       0x20 .obj/source/library/math/k_tanf.o
 .debug_frame   0x00002ae0       0x2c .obj/source/library/math/log.o
 .debug_frame   0x00002b0c       0x2c .obj/source/library/math/log10.o
 .debug_frame   0x00002b38       0x2c .obj/source/library/math/log10f.o
 .debug_frame   0x00002b64       0x28 .obj/source/library/math/logf.o
 .debug_frame   0x00002b8c       0x2c .obj/source/library/math/modf.o
 .debug_frame   0x00002bb8       0x20 .obj/source/library/math/modff.o
 .debug_frame   0x00002bd8       0x3c .obj/source/library/math/pow.o
 .debug_frame   0x00002c14       0x38 .obj/source/library/math/powf.o
 .debug_frame   0x00002c4c       0x38 .obj/source/library/math/scalbn.o
 .debug_frame   0x00002c84       0x30 .obj/source/library/math/scalbnf.o
 .debug_frame   0x00002cb4       0x30 .obj/source/library/math/sin.o
 .debug_frame   0x00002ce4       0x28 .obj/source/library/math/sinf.o
 .debug_frame   0x00002d0c       0x30 .obj/source/library/math/sinh.o
 .debug_frame   0x00002d3c       0x30 .obj/source/library/math/sinhf.o
 .debug_frame   0x00002d6c       0x34 .obj/source/library/math/sqrt.o
 .debug_frame   0x00002da0       0x2c .obj/source/library/math/sqrtf.o
 .debug_frame   0x00002dcc       0x28 .obj/source/library/math/tan.o
 .debug_frame   0x00002df4       0x28 .obj/source/library/math/tanf.o
 .debug_frame   0x00002e1c       0x28 .obj/source/library/math/tanh.o
 .debug_frame   0x00002e44       0x28 .obj/source/library/math/tanhf.o
 .debug_frame   0x00002e6c       0x74 .obj/source/graphic/color.o
 .debug_frame   0x00002ee0       0x20 .obj/source/graphic/maps.o
 .debug_frame   0x00002f00       0x70 .obj/source/graphic/pixel.o
 .debug_frame   0x00002f70      0x100 .obj/source/graphic/rect.o
 .debug_frame   0x00003070      0x100 .obj/source/graphic/surface.o
 .debug_frame   0x00003170       0x34 .obj/source/graphic/maps/software/sw_blit.o
 .debug_frame   0x000031a4       0x38 .obj/source/graphic/maps/software/sw_blit_alpha.o
 .debug_frame   0x000031dc       0x54 .obj/source/graphic/maps/software/sw_blit_replace.o
 .debug_frame   0x00003230       0x3c .obj/source/graphic/maps/software/sw_fill.o
 .debug_frame   0x0000326c       0x20 .obj/source/graphic/maps/software/sw_hline.o
 .debug_frame   0x0000328c       0x34 .obj/source/graphic/maps/software/sw_point.o
 .debug_frame   0x000032c0       0x38 .obj/source/graphic/maps/software/sw_rotate.o
 .debug_frame   0x000032f8       0x3c .obj/source/graphic/maps/software/sw_scale.o
 .debug_frame   0x00003334       0x74 .obj/source/graphic/maps/software/sw_utils.o
 .debug_frame   0x000033a8       0x20 .obj/source/graphic/maps/software/sw_vline.o
 .debug_frame   0x000033c8       0x20 c:/yagarto-20121222/bin/../lib/gcc/arm-none-eabi/4.7.2\libgcc.a(_udivsi3.o)
 .debug_frame   0x000033e8       0x20 c:/yagarto-20121222/bin/../lib/gcc/arm-none-eabi/4.7.2\libgcc.a(_divsi3.o)
 .debug_frame   0x00003408       0x54 c:/yagarto-20121222/bin/../lib/gcc/arm-none-eabi/4.7.2\libgcc.a(bpabi.o)
 .debug_frame   0x0000345c       0x38 c:/yagarto-20121222/bin/../lib/gcc/arm-none-eabi/4.7.2\libgcc.a(_divdi3.o)
 .debug_frame   0x00003494       0x38 c:/yagarto-20121222/bin/../lib/gcc/arm-none-eabi/4.7.2\libgcc.a(_udivdi3.o)
 .debug_frame   0x000034cc      0x290 c:/yagarto-20121222/bin/../lib/gcc/arm-none-eabi/4.7.2\libgcc.a(unwind-arm.o)
 .debug_frame   0x0000375c       0xe4 c:/yagarto-20121222/bin/../lib/gcc/arm-none-eabi/4.7.2\libgcc.a(pr-support.o)

Cross Reference Table

Symbol                                            File
_Unwind_Backtrace                                 c:/yagarto-20121222/bin/../lib/gcc/arm-none-eabi/4.7.2\libgcc.a(libunwind.o)
_Unwind_Complete                                  c:/yagarto-20121222/bin/../lib/gcc/arm-none-eabi/4.7.2\libgcc.a(unwind-arm.o)
_Unwind_DeleteException                           c:/yagarto-20121222/bin/../lib/gcc/arm-none-eabi/4.7.2\libgcc.a(unwind-arm.o)
_Unwind_ForcedUnwind                              c:/yagarto-20121222/bin/../lib/gcc/arm-none-eabi/4.7.2\libgcc.a(libunwind.o)
_Unwind_GetCFA                                    c:/yagarto-20121222/bin/../lib/gcc/arm-none-eabi/4.7.2\libgcc.a(unwind-arm.o)
_Unwind_GetDataRelBase                            c:/yagarto-20121222/bin/../lib/gcc/arm-none-eabi/4.7.2\libgcc.a(pr-support.o)
_Unwind_GetLanguageSpecificData                   c:/yagarto-20121222/bin/../lib/gcc/arm-none-eabi/4.7.2\libgcc.a(pr-support.o)
_Unwind_GetRegionStart                            c:/yagarto-20121222/bin/../lib/gcc/arm-none-eabi/4.7.2\libgcc.a(pr-support.o)
_Unwind_GetTextRelBase                            c:/yagarto-20121222/bin/../lib/gcc/arm-none-eabi/4.7.2\libgcc.a(pr-support.o)
_Unwind_RaiseException                            c:/yagarto-20121222/bin/../lib/gcc/arm-none-eabi/4.7.2\libgcc.a(libunwind.o)
_Unwind_Resume                                    c:/yagarto-20121222/bin/../lib/gcc/arm-none-eabi/4.7.2\libgcc.a(libunwind.o)
_Unwind_Resume_or_Rethrow                         c:/yagarto-20121222/bin/../lib/gcc/arm-none-eabi/4.7.2\libgcc.a(libunwind.o)
_Unwind_VRS_Get                                   c:/yagarto-20121222/bin/../lib/gcc/arm-none-eabi/4.7.2\libgcc.a(unwind-arm.o)
                                                  c:/yagarto-20121222/bin/../lib/gcc/arm-none-eabi/4.7.2\libgcc.a(pr-support.o)
_Unwind_VRS_Pop                                   c:/yagarto-20121222/bin/../lib/gcc/arm-none-eabi/4.7.2\libgcc.a(unwind-arm.o)
                                                  c:/yagarto-20121222/bin/../lib/gcc/arm-none-eabi/4.7.2\libgcc.a(pr-support.o)
_Unwind_VRS_Set                                   c:/yagarto-20121222/bin/../lib/gcc/arm-none-eabi/4.7.2\libgcc.a(unwind-arm.o)
                                                  c:/yagarto-20121222/bin/../lib/gcc/arm-none-eabi/4.7.2\libgcc.a(pr-support.o)
___Unwind_Backtrace                               c:/yagarto-20121222/bin/../lib/gcc/arm-none-eabi/4.7.2\libgcc.a(libunwind.o)
___Unwind_ForcedUnwind                            c:/yagarto-20121222/bin/../lib/gcc/arm-none-eabi/4.7.2\libgcc.a(libunwind.o)
___Unwind_RaiseException                          c:/yagarto-20121222/bin/../lib/gcc/arm-none-eabi/4.7.2\libgcc.a(libunwind.o)
___Unwind_Resume                                  c:/yagarto-20121222/bin/../lib/gcc/arm-none-eabi/4.7.2\libgcc.a(libunwind.o)
___Unwind_Resume_or_Rethrow                       c:/yagarto-20121222/bin/../lib/gcc/arm-none-eabi/4.7.2\libgcc.a(libunwind.o)
__aeabi_idiv                                      c:/yagarto-20121222/bin/../lib/gcc/arm-none-eabi/4.7.2\libgcc.a(_divsi3.o)
                                                  .obj/source/graphic/maps/software/sw_scale.o
                                                  .obj/source/graphic/rect.o
                                                  .obj/source/library/stdio/vsnprintf.o
                                                  .obj/source/library/stdlib/strtol.o
                                                  .obj/source/library/stdlib/ldiv.o
                                                  .obj/source/library/stdlib/div.o
__aeabi_idiv0                                     c:/yagarto-20121222/bin/../lib/gcc/arm-none-eabi/4.7.2\libgcc.a(_dvmd_tls.o)
                                                  c:/yagarto-20121222/bin/../lib/gcc/arm-none-eabi/4.7.2\libgcc.a(_divsi3.o)
                                                  c:/yagarto-20121222/bin/../lib/gcc/arm-none-eabi/4.7.2\libgcc.a(_udivsi3.o)
__aeabi_idivmod                                   c:/yagarto-20121222/bin/../lib/gcc/arm-none-eabi/4.7.2\libgcc.a(_divsi3.o)
                                                  .obj/source/library/stdlib/strtol.o
                                                  .obj/source/library/stdlib/ldiv.o
                                                  .obj/source/library/stdlib/div.o
__aeabi_ldiv0                                     c:/yagarto-20121222/bin/../lib/gcc/arm-none-eabi/4.7.2\libgcc.a(_dvmd_tls.o)
                                                  c:/yagarto-20121222/bin/../lib/gcc/arm-none-eabi/4.7.2\libgcc.a(_aeabi_uldivmod.o)
                                                  c:/yagarto-20121222/bin/../lib/gcc/arm-none-eabi/4.7.2\libgcc.a(_aeabi_ldivmod.o)
__aeabi_ldivmod                                   c:/yagarto-20121222/bin/../lib/gcc/arm-none-eabi/4.7.2\libgcc.a(_aeabi_ldivmod.o)
                                                  .obj/source/library/stdlib/strtoll.o
                                                  .obj/source/library/stdlib/strtoimax.o
                                                  .obj/source/library/stdlib/lldiv.o
__aeabi_uidiv                                     c:/yagarto-20121222/bin/../lib/gcc/arm-none-eabi/4.7.2\libgcc.a(_udivsi3.o)
                                                  c:/yagarto-20121222/bin/../lib/gcc/arm-none-eabi/4.7.2\libgcc.a(_udivdi3.o)
                                                  c:/yagarto-20121222/bin/../lib/gcc/arm-none-eabi/4.7.2\libgcc.a(_divdi3.o)
                                                  .obj/source/library/stdlib/strtoul.o
                                                  .obj/source/library/stdlib/qsort.o
                                                  .obj/source/hardware/s5p6818-timer.o
                                                  .obj/source/hardware/s5p6818-tick-delay.o
                                                  .obj/source/hardware/s5p6818-pwm.o
__aeabi_uidivmod                                  c:/yagarto-20121222/bin/../lib/gcc/arm-none-eabi/4.7.2\libgcc.a(_udivsi3.o)
                                                  c:/yagarto-20121222/bin/../lib/gcc/arm-none-eabi/4.7.2\libgcc.a(_udivdi3.o)
                                                  c:/yagarto-20121222/bin/../lib/gcc/arm-none-eabi/4.7.2\libgcc.a(_divdi3.o)
                                                  .obj/source/library/stdlib/strtoul.o
__aeabi_uldivmod                                  c:/yagarto-20121222/bin/../lib/gcc/arm-none-eabi/4.7.2\libgcc.a(_aeabi_uldivmod.o)
                                                  .obj/source/library/stdio/vsnprintf.o
                                                  .obj/source/library/stdlib/strtoumax.o
                                                  .obj/source/library/stdlib/strtoull.o
                                                  .obj/source/hardware/clk/clk-fixed-factor.o
                                                  .obj/source/hardware/clk/clk-divider.o
                                                  .obj/source/hardware/s5p6818-tick.o
                                                  .obj/source/hardware/s5p6818-serial.o
                                                  .obj/source/hardware/s5p6818-pwm.o
                                                  .obj/source/hardware/s5p6818-clk.o
__aeabi_unwind_cpp_pr0                            c:/yagarto-20121222/bin/../lib/gcc/arm-none-eabi/4.7.2\libgcc.a(unwind-arm.o)
                                                  c:/yagarto-20121222/bin/../lib/gcc/arm-none-eabi/4.7.2\libgcc.a(pr-support.o)
                                                  c:/yagarto-20121222/bin/../lib/gcc/arm-none-eabi/4.7.2\libgcc.a(_udivdi3.o)
                                                  c:/yagarto-20121222/bin/../lib/gcc/arm-none-eabi/4.7.2\libgcc.a(_divdi3.o)
__aeabi_unwind_cpp_pr1                            c:/yagarto-20121222/bin/../lib/gcc/arm-none-eabi/4.7.2\libgcc.a(unwind-arm.o)
                                                  c:/yagarto-20121222/bin/../lib/gcc/arm-none-eabi/4.7.2\libgcc.a(pr-support.o)
__aeabi_unwind_cpp_pr2                            c:/yagarto-20121222/bin/../lib/gcc/arm-none-eabi/4.7.2\libgcc.a(unwind-arm.o)
__assert_fail                                     .obj/source/library/exit/assert.o
__bss_end                                         .obj/source/startup/start.o
__bss_start                                       .obj/source/startup/start.o
__clzsi2                                          c:/yagarto-20121222/bin/../lib/gcc/arm-none-eabi/4.7.2\libgcc.a(_clzsi2.o)
                                                  c:/yagarto-20121222/bin/../lib/gcc/arm-none-eabi/4.7.2\libgcc.a(_udivdi3.o)
                                                  c:/yagarto-20121222/bin/../lib/gcc/arm-none-eabi/4.7.2\libgcc.a(_divdi3.o)
__const_ctype                                     .obj/source/library/ctype/ctype.o
                                                  .obj/source/library/ctype/isxdigit.o
                                                  .obj/source/library/ctype/isupper.o
                                                  .obj/source/library/ctype/isspace.o
                                                  .obj/source/library/ctype/ispunct.o
                                                  .obj/source/library/ctype/isprint.o
                                                  .obj/source/library/ctype/islower.o
                                                  .obj/source/library/ctype/isgraph.o
                                                  .obj/source/library/ctype/isdigit.o
                                                  .obj/source/library/ctype/iscntrl.o
                                                  .obj/source/library/ctype/isalpha.o
                                                  .obj/source/library/ctype/isalnum.o
__cxa_begin_cleanup                               c:/yagarto-20121222/bin/../lib/gcc/arm-none-eabi/4.7.2\libgcc.a(unwind-arm.o)
__cxa_call_unexpected                             c:/yagarto-20121222/bin/../lib/gcc/arm-none-eabi/4.7.2\libgcc.a(unwind-arm.o)
__cxa_type_match                                  c:/yagarto-20121222/bin/../lib/gcc/arm-none-eabi/4.7.2\libgcc.a(unwind-arm.o)
__data_end                                        .obj/source/startup/start.o
__data_shadow_end                                 .obj/source/startup/start.o
__data_shadow_start                               .obj/source/startup/start.o
__data_start                                      .obj/source/startup/start.o
__delay                                           .obj/source/hardware/s5p6818-tick-delay.o
__divdi3                                          c:/yagarto-20121222/bin/../lib/gcc/arm-none-eabi/4.7.2\libgcc.a(_divdi3.o)
                                                  c:/yagarto-20121222/bin/../lib/gcc/arm-none-eabi/4.7.2\libgcc.a(bpabi.o)
__divsi3                                          c:/yagarto-20121222/bin/../lib/gcc/arm-none-eabi/4.7.2\libgcc.a(_divsi3.o)
__exidx_end                                       c:/yagarto-20121222/bin/../lib/gcc/arm-none-eabi/4.7.2\libgcc.a(unwind-arm.o)
__exidx_start                                     c:/yagarto-20121222/bin/../lib/gcc/arm-none-eabi/4.7.2\libgcc.a(unwind-arm.o)
__gnu_Unwind_Backtrace                            c:/yagarto-20121222/bin/../lib/gcc/arm-none-eabi/4.7.2\libgcc.a(unwind-arm.o)
                                                  c:/yagarto-20121222/bin/../lib/gcc/arm-none-eabi/4.7.2\libgcc.a(libunwind.o)
__gnu_Unwind_Find_exidx                           c:/yagarto-20121222/bin/../lib/gcc/arm-none-eabi/4.7.2\libgcc.a(unwind-arm.o)
__gnu_Unwind_ForcedUnwind                         c:/yagarto-20121222/bin/../lib/gcc/arm-none-eabi/4.7.2\libgcc.a(unwind-arm.o)
                                                  c:/yagarto-20121222/bin/../lib/gcc/arm-none-eabi/4.7.2\libgcc.a(libunwind.o)
__gnu_Unwind_RaiseException                       c:/yagarto-20121222/bin/../lib/gcc/arm-none-eabi/4.7.2\libgcc.a(unwind-arm.o)
                                                  c:/yagarto-20121222/bin/../lib/gcc/arm-none-eabi/4.7.2\libgcc.a(libunwind.o)
__gnu_Unwind_Restore_VFP                          c:/yagarto-20121222/bin/../lib/gcc/arm-none-eabi/4.7.2\libgcc.a(libunwind.o)
                                                  c:/yagarto-20121222/bin/../lib/gcc/arm-none-eabi/4.7.2\libgcc.a(unwind-arm.o)
__gnu_Unwind_Restore_VFP_D                        c:/yagarto-20121222/bin/../lib/gcc/arm-none-eabi/4.7.2\libgcc.a(libunwind.o)
                                                  c:/yagarto-20121222/bin/../lib/gcc/arm-none-eabi/4.7.2\libgcc.a(unwind-arm.o)
__gnu_Unwind_Restore_VFP_D_16_to_31               c:/yagarto-20121222/bin/../lib/gcc/arm-none-eabi/4.7.2\libgcc.a(libunwind.o)
                                                  c:/yagarto-20121222/bin/../lib/gcc/arm-none-eabi/4.7.2\libgcc.a(unwind-arm.o)
__gnu_Unwind_Restore_WMMXC                        c:/yagarto-20121222/bin/../lib/gcc/arm-none-eabi/4.7.2\libgcc.a(libunwind.o)
                                                  c:/yagarto-20121222/bin/../lib/gcc/arm-none-eabi/4.7.2\libgcc.a(unwind-arm.o)
__gnu_Unwind_Restore_WMMXD                        c:/yagarto-20121222/bin/../lib/gcc/arm-none-eabi/4.7.2\libgcc.a(libunwind.o)
                                                  c:/yagarto-20121222/bin/../lib/gcc/arm-none-eabi/4.7.2\libgcc.a(unwind-arm.o)
__gnu_Unwind_Resume                               c:/yagarto-20121222/bin/../lib/gcc/arm-none-eabi/4.7.2\libgcc.a(unwind-arm.o)
                                                  c:/yagarto-20121222/bin/../lib/gcc/arm-none-eabi/4.7.2\libgcc.a(libunwind.o)
__gnu_Unwind_Resume_or_Rethrow                    c:/yagarto-20121222/bin/../lib/gcc/arm-none-eabi/4.7.2\libgcc.a(unwind-arm.o)
                                                  c:/yagarto-20121222/bin/../lib/gcc/arm-none-eabi/4.7.2\libgcc.a(libunwind.o)
__gnu_Unwind_Save_VFP                             c:/yagarto-20121222/bin/../lib/gcc/arm-none-eabi/4.7.2\libgcc.a(libunwind.o)
                                                  c:/yagarto-20121222/bin/../lib/gcc/arm-none-eabi/4.7.2\libgcc.a(unwind-arm.o)
__gnu_Unwind_Save_VFP_D                           c:/yagarto-20121222/bin/../lib/gcc/arm-none-eabi/4.7.2\libgcc.a(libunwind.o)
                                                  c:/yagarto-20121222/bin/../lib/gcc/arm-none-eabi/4.7.2\libgcc.a(unwind-arm.o)
__gnu_Unwind_Save_VFP_D_16_to_31                  c:/yagarto-20121222/bin/../lib/gcc/arm-none-eabi/4.7.2\libgcc.a(libunwind.o)
                                                  c:/yagarto-20121222/bin/../lib/gcc/arm-none-eabi/4.7.2\libgcc.a(unwind-arm.o)
__gnu_Unwind_Save_WMMXC                           c:/yagarto-20121222/bin/../lib/gcc/arm-none-eabi/4.7.2\libgcc.a(libunwind.o)
                                                  c:/yagarto-20121222/bin/../lib/gcc/arm-none-eabi/4.7.2\libgcc.a(unwind-arm.o)
__gnu_Unwind_Save_WMMXD                           c:/yagarto-20121222/bin/../lib/gcc/arm-none-eabi/4.7.2\libgcc.a(libunwind.o)
                                                  c:/yagarto-20121222/bin/../lib/gcc/arm-none-eabi/4.7.2\libgcc.a(unwind-arm.o)
__gnu_ldivmod_helper                              c:/yagarto-20121222/bin/../lib/gcc/arm-none-eabi/4.7.2\libgcc.a(bpabi.o)
                                                  c:/yagarto-20121222/bin/../lib/gcc/arm-none-eabi/4.7.2\libgcc.a(_aeabi_ldivmod.o)
__gnu_uldivmod_helper                             c:/yagarto-20121222/bin/../lib/gcc/arm-none-eabi/4.7.2\libgcc.a(bpabi.o)
                                                  c:/yagarto-20121222/bin/../lib/gcc/arm-none-eabi/4.7.2\libgcc.a(_aeabi_uldivmod.o)
__gnu_unwind_execute                              c:/yagarto-20121222/bin/../lib/gcc/arm-none-eabi/4.7.2\libgcc.a(pr-support.o)
                                                  c:/yagarto-20121222/bin/../lib/gcc/arm-none-eabi/4.7.2\libgcc.a(unwind-arm.o)
__gnu_unwind_frame                                c:/yagarto-20121222/bin/../lib/gcc/arm-none-eabi/4.7.2\libgcc.a(pr-support.o)
__gpiochip_list                                   .obj/source/hardware/gpio/gpio.o
__ieee754_rem_pio2                                .obj/source/library/math/e_rem_pio2.o
                                                  .obj/source/library/math/tan.o
                                                  .obj/source/library/math/sin.o
                                                  .obj/source/library/math/cos.o
__ieee754_rem_pio2f                               .obj/source/library/math/e_rem_pio2f.o
                                                  .obj/source/library/math/tanf.o
                                                  .obj/source/library/math/sinf.o
                                                  .obj/source/library/math/cosf.o
__image_end                                       .obj/source/startup/start.o
__image_start                                     .obj/source/startup/start.o
__irq_list                                        .obj/source/hardware/interrupt/interrupt.o
__kernel_cos                                      .obj/source/library/math/k_cos.o
                                                  .obj/source/library/math/sin.o
                                                  .obj/source/library/math/cos.o
__kernel_cosdf                                    .obj/source/library/math/k_cosf.o
                                                  .obj/source/library/math/sinf.o
                                                  .obj/source/library/math/cosf.o
__kernel_rem_pio2                                 .obj/source/library/math/k_rem_pio2.o
                                                  .obj/source/library/math/e_rem_pio2f.o
                                                  .obj/source/library/math/e_rem_pio2.o
__kernel_rem_pio2f                                .obj/source/library/math/k_rem_pio2f.o
__kernel_sin                                      .obj/source/library/math/k_sin.o
                                                  .obj/source/library/math/sin.o
                                                  .obj/source/library/math/cos.o
__kernel_sindf                                    .obj/source/library/math/k_sinf.o
                                                  .obj/source/library/math/sinf.o
                                                  .obj/source/library/math/cosf.o
__kernel_tan                                      .obj/source/library/math/k_tan.o
                                                  .obj/source/library/math/tan.o
__kernel_tandf                                    .obj/source/library/math/k_tanf.o
                                                  .obj/source/library/math/tanf.o
__pwm_list                                        .obj/source/hardware/pwm/pwm.o
__restore_core_regs                               c:/yagarto-20121222/bin/../lib/gcc/arm-none-eabi/4.7.2\libgcc.a(libunwind.o)
__runtime_errno_location                          .obj/source/library/errno/errno.o
                                                  .obj/source/library/stdlib/strtoumax.o
                                                  .obj/source/library/stdlib/strtoull.o
                                                  .obj/source/library/stdlib/strtoul.o
                                                  .obj/source/library/stdlib/strtoll.o
                                                  .obj/source/library/stdlib/strtol.o
                                                  .obj/source/library/stdlib/strtoimax.o
                                                  .obj/source/library/stdlib/strtod.o
__stack_abt_end                                   .obj/source/startup/start.o
__stack_fiq_end                                   .obj/source/startup/start.o
__stack_irq_end                                   .obj/source/startup/start.o
__stack_srv_end                                   .obj/source/startup/start.o
__stack_und_end                                   .obj/source/startup/start.o
__udivdi3                                         c:/yagarto-20121222/bin/../lib/gcc/arm-none-eabi/4.7.2\libgcc.a(_udivdi3.o)
                                                  c:/yagarto-20121222/bin/../lib/gcc/arm-none-eabi/4.7.2\libgcc.a(bpabi.o)
__udivsi3                                         c:/yagarto-20121222/bin/../lib/gcc/arm-none-eabi/4.7.2\libgcc.a(_udivsi3.o)
_start                                            .obj/source/startup/start.o
abort                                             .obj/source/library/exit/abort.o
                                                  c:/yagarto-20121222/bin/../lib/gcc/arm-none-eabi/4.7.2\libgcc.a(pr-support.o)
                                                  c:/yagarto-20121222/bin/../lib/gcc/arm-none-eabi/4.7.2\libgcc.a(unwind-arm.o)
abs                                               .obj/source/library/stdlib/abs.o
acos                                              .obj/source/library/math/acos.o
acosf                                             .obj/source/library/math/acosf.o
asin                                              .obj/source/library/math/asin.o
asinf                                             .obj/source/library/math/asinf.o
atan                                              .obj/source/library/math/atan.o
                                                  .obj/source/library/math/atan2.o
atan2                                             .obj/source/library/math/atan2.o
atan2f                                            .obj/source/library/math/atan2f.o
atanf                                             .obj/source/library/math/atanf.o
                                                  .obj/source/library/math/atan2f.o
atof                                              .obj/source/library/stdlib/atof.o
atoi                                              .obj/source/library/stdlib/atoi.o
atol                                              .obj/source/library/stdlib/atol.o
atoll                                             .obj/source/library/stdlib/atoll.o
beep_initial                                      .obj/source/hardware/hw-beep.o
                                                  .obj/source/main.o
beep_set_status                                   .obj/source/hardware/hw-beep.o
                                                  .obj/source/tester-key-with-led.o
branch_disable                                    .obj/source/arm/cp15.o
branch_enable                                     .obj/source/arm/cp15.o
branch_status                                     .obj/source/arm/cp15.o
bsearch                                           .obj/source/library/stdlib/bsearch.o
calloc                                            .obj/source/library/malloc/malloc.o
ceil                                              .obj/source/library/math/ceil.o
ceilf                                             .obj/source/library/math/ceilf.o
clk_disable                                       .obj/source/hardware/clk/clk.o
                                                  .obj/source/hardware/s5p6818-timer.o
                                                  .obj/source/hardware/s5p6818-pwm.o
clk_divider_register                              .obj/source/hardware/clk/clk-divider.o
                                                  .obj/source/hardware/s5p6818-clk.o
clk_divider_unregister                            .obj/source/hardware/clk/clk-divider.o
                                                  .obj/source/hardware/s5p6818-clk.o
clk_enable                                        .obj/source/hardware/clk/clk.o
                                                  .obj/source/hardware/s5p6818-timer.o
                                                  .obj/source/hardware/s5p6818-serial.o
                                                  .obj/source/hardware/s5p6818-pwm.o
clk_fixed_factor_register                         .obj/source/hardware/clk/clk-fixed-factor.o
clk_fixed_factor_unregister                       .obj/source/hardware/clk/clk-fixed-factor.o
clk_fixed_register                                .obj/source/hardware/clk/clk-fixed.o
                                                  .obj/source/hardware/s5p6818-clk.o
clk_fixed_unregister                              .obj/source/hardware/clk/clk-fixed.o
                                                  .obj/source/hardware/s5p6818-clk.o
clk_gate_register                                 .obj/source/hardware/clk/clk-gate.o
                                                  .obj/source/hardware/s5p6818-clk.o
clk_gate_unregister                               .obj/source/hardware/clk/clk-gate.o
                                                  .obj/source/hardware/s5p6818-clk.o
clk_get_parent                                    .obj/source/hardware/clk/clk.o
clk_get_rate                                      .obj/source/hardware/clk/clk.o
                                                  .obj/source/hardware/s5p6818-timer.o
                                                  .obj/source/hardware/s5p6818-serial.o
                                                  .obj/source/hardware/s5p6818-pwm.o
clk_link_register                                 .obj/source/hardware/clk/clk-link.o
clk_link_unregister                               .obj/source/hardware/clk/clk-link.o
clk_mux_register                                  .obj/source/hardware/clk/clk-mux.o
                                                  .obj/source/hardware/s5p6818-clk.o
clk_mux_unregister                                .obj/source/hardware/clk/clk-mux.o
                                                  .obj/source/hardware/s5p6818-clk.o
clk_pll_register                                  .obj/source/hardware/clk/clk-pll.o
                                                  .obj/source/hardware/s5p6818-clk.o
clk_pll_unregister                                .obj/source/hardware/clk/clk-pll.o
                                                  .obj/source/hardware/s5p6818-clk.o
clk_register                                      .obj/source/hardware/clk/clk.o
                                                  .obj/source/hardware/clk/clk-pll.o
                                                  .obj/source/hardware/clk/clk-mux.o
                                                  .obj/source/hardware/clk/clk-link.o
                                                  .obj/source/hardware/clk/clk-gate.o
                                                  .obj/source/hardware/clk/clk-fixed.o
                                                  .obj/source/hardware/clk/clk-fixed-factor.o
                                                  .obj/source/hardware/clk/clk-divider.o
clk_search                                        .obj/source/hardware/clk/clk.o
                                                  .obj/source/hardware/clk/clk-pll.o
                                                  .obj/source/hardware/clk/clk-mux.o
                                                  .obj/source/hardware/clk/clk-link.o
                                                  .obj/source/hardware/clk/clk-gate.o
                                                  .obj/source/hardware/clk/clk-fixed.o
                                                  .obj/source/hardware/clk/clk-fixed-factor.o
                                                  .obj/source/hardware/clk/clk-divider.o
clk_set_parent                                    .obj/source/hardware/clk/clk.o
clk_set_rate                                      .obj/source/hardware/clk/clk.o
                                                  .obj/source/hardware/s5p6818-clk.o
clk_status                                        .obj/source/hardware/clk/clk.o
clk_unregister                                    .obj/source/hardware/clk/clk.o
                                                  .obj/source/hardware/clk/clk-pll.o
                                                  .obj/source/hardware/clk/clk-mux.o
                                                  .obj/source/hardware/clk/clk-link.o
                                                  .obj/source/hardware/clk/clk-gate.o
                                                  .obj/source/hardware/clk/clk-fixed.o
                                                  .obj/source/hardware/clk/clk-fixed-factor.o
                                                  .obj/source/hardware/clk/clk-divider.o
clock_gettime                                     .obj/source/hardware/s5p6818-tick.o
color_init_colstr                                 .obj/source/graphic/color.o
color_init_rgb                                    .obj/source/graphic/color.o
color_init_rgba                                   .obj/source/graphic/color.o
copysign                                          .obj/source/library/math/copysign.o
copysignf                                         .obj/source/library/math/copysignf.o
cos                                               .obj/source/library/math/cos.o
cosf                                              .obj/source/library/math/cosf.o
cosh                                              .obj/source/library/math/cosh.o
coshf                                             .obj/source/library/math/coshf.o
dcache_disable                                    .obj/source/arm/cp15.o
dcache_enable                                     .obj/source/arm/cp15.o
dcache_status                                     .obj/source/arm/cp15.o
disable_irq                                       .obj/source/hardware/interrupt/interrupt.o
div                                               .obj/source/library/stdlib/div.o
do_irq                                            .obj/source/hardware/s5p6818-irq.o
                                                  .obj/source/startup/start.o
domain_get                                        .obj/source/arm/cp15.o
domain_set                                        .obj/source/arm/cp15.o
enable_irq                                        .obj/source/hardware/interrupt/interrupt.o
exit                                              .obj/source/library/exit/exit.o
exp                                               .obj/source/library/math/exp.o
                                                  .obj/source/library/math/sinh.o
                                                  .obj/source/library/math/cosh.o
expf                                              .obj/source/library/math/expf.o
                                                  .obj/source/library/math/sinhf.o
                                                  .obj/source/library/math/coshf.o
expm1                                             .obj/source/library/math/expm1.o
                                                  .obj/source/library/math/tanh.o
                                                  .obj/source/library/math/sinh.o
                                                  .obj/source/library/math/cosh.o
expm1f                                            .obj/source/library/math/expm1f.o
                                                  .obj/source/library/math/tanhf.o
                                                  .obj/source/library/math/sinhf.o
                                                  .obj/source/library/math/coshf.o
fabs                                              .obj/source/library/math/fabs.o
fabsf                                             .obj/source/library/math/fabsf.o
fiq_disable                                       .obj/source/arm/cp15.o
                                                  .obj/source/hardware/s5p6818-irq.o
fiq_enable                                        .obj/source/arm/cp15.o
                                                  .obj/source/hardware/s5p6818-irq.o
floor                                             .obj/source/library/math/floor.o
                                                  .obj/source/library/math/k_rem_pio2.o
floorf                                            .obj/source/library/math/floorf.o
                                                  .obj/source/library/math/k_rem_pio2f.o
fmod                                              .obj/source/library/math/fmod.o
fmodf                                             .obj/source/library/math/fmodf.o
free                                              .obj/source/library/malloc/malloc.o
                                                  .obj/source/graphic/surface.o
                                                  .obj/source/hardware/pwm/pwm.o
                                                  .obj/source/hardware/interrupt/interrupt.o
                                                  .obj/source/hardware/gpio/gpio.o
                                                  .obj/source/hardware/clk/clk.o
                                                  .obj/source/hardware/clk/clk-pll.o
                                                  .obj/source/hardware/clk/clk-mux.o
                                                  .obj/source/hardware/clk/clk-link.o
                                                  .obj/source/hardware/clk/clk-gate.o
                                                  .obj/source/hardware/clk/clk-fixed.o
                                                  .obj/source/hardware/clk/clk-fixed-factor.o
                                                  .obj/source/hardware/clk/clk-divider.o
                                                  .obj/source/hardware/s5p6818-serial-stdio.o
                                                  .obj/source/hardware/s5p6818-pwm.o
                                                  .obj/source/hardware/s5p6818-gpio.o
free_irq                                          .obj/source/hardware/interrupt/interrupt.o
frexp                                             .obj/source/library/math/frexp.o
frexpf                                            .obj/source/library/math/frexpf.o
get_key_event                                     .obj/source/hardware/hw-key.o
get_key_status                                    .obj/source/hardware/hw-key.o
get_named_color                                   .obj/source/graphic/color.o
get_pixel_format                                  .obj/source/graphic/pixel.o
                                                  .obj/source/hardware/s5p6818-fb.o
get_system_hz                                     .obj/source/hardware/s5p6818-tick.o
                                                  .obj/source/hardware/s5p6818-tick-delay.o
gpio_direction_input                              .obj/source/hardware/gpio/gpio.o
                                                  .obj/source/hardware/hw-key.o
                                                  .obj/source/tester-key-with-led.o
gpio_direction_output                             .obj/source/hardware/gpio/gpio.o
                                                  .obj/source/hardware/s5p6818-fb.o
                                                  .obj/source/hardware/hw-led.o
                                                  .obj/source/hardware/hw-beep.o
gpio_get_cfg                                      .obj/source/hardware/gpio/gpio.o
gpio_get_direction                                .obj/source/hardware/gpio/gpio.o
gpio_get_drv                                      .obj/source/hardware/gpio/gpio.o
gpio_get_pull                                     .obj/source/hardware/gpio/gpio.o
gpio_get_rate                                     .obj/source/hardware/gpio/gpio.o
gpio_get_value                                    .obj/source/hardware/gpio/gpio.o
                                                  .obj/source/hardware/hw-key.o
                                                  .obj/source/tester-key-with-led.o
gpio_is_valid                                     .obj/source/hardware/gpio/gpio.o
gpio_set_cfg                                      .obj/source/hardware/gpio/gpio.o
                                                  .obj/source/hardware/s5p6818-serial.o
                                                  .obj/source/hardware/s5p6818-pwm.o
                                                  .obj/source/hardware/s5p6818-fb.o
                                                  .obj/source/hardware/hw-led.o
                                                  .obj/source/hardware/hw-key.o
                                                  .obj/source/hardware/hw-beep.o
                                                  .obj/source/tester-key-with-led.o
gpio_set_direction                                .obj/source/hardware/gpio/gpio.o
                                                  .obj/source/hardware/s5p6818-serial.o
gpio_set_drv                                      .obj/source/hardware/gpio/gpio.o
                                                  .obj/source/hardware/s5p6818-fb.o
gpio_set_pull                                     .obj/source/hardware/gpio/gpio.o
                                                  .obj/source/hardware/s5p6818-fb.o
                                                  .obj/source/hardware/hw-led.o
                                                  .obj/source/hardware/hw-key.o
                                                  .obj/source/hardware/hw-beep.o
                                                  .obj/source/tester-key-with-led.o
gpio_set_rate                                     .obj/source/hardware/gpio/gpio.o
gpio_set_value                                    .obj/source/hardware/gpio/gpio.o
                                                  .obj/source/hardware/hw-led.o
                                                  .obj/source/hardware/hw-beep.o
gpiochip_alv                                      .obj/source/hardware/s5p6818-alv.o
hypot                                             .obj/source/library/math/hypot.o
hypotf                                            .obj/source/library/math/hypotf.o
icache_disable                                    .obj/source/arm/cp15.o
icache_enable                                     .obj/source/arm/cp15.o
icache_status                                     .obj/source/arm/cp15.o
init_stat                                         .obj/source/tester-key-with-led.o
interrupt_group_order                             .obj/source/tester-key-with-led.o
interrupt_stage_change                            .obj/source/tester-key-with-led.o
irq                                               .obj/source/startup/start.o
irq_disable                                       .obj/source/arm/cp15.o
                                                  .obj/source/hardware/s5p6818-irq.o
irq_enable                                        .obj/source/arm/cp15.o
                                                  .obj/source/hardware/s5p6818-irq.o
irq_register                                      .obj/source/hardware/interrupt/interrupt.o
                                                  .obj/source/hardware/s5p6818-irq.o
irq_unregister                                    .obj/source/hardware/interrupt/interrupt.o
                                                  .obj/source/hardware/s5p6818-irq.o
isalnum                                           .obj/source/library/ctype/isalnum.o
isalpha                                           .obj/source/library/ctype/isalpha.o
                                                  .obj/source/library/stdlib/strtoumax.o
                                                  .obj/source/library/stdlib/strtoull.o
                                                  .obj/source/library/stdlib/strtoul.o
                                                  .obj/source/library/stdlib/strtoll.o
                                                  .obj/source/library/stdlib/strtol.o
                                                  .obj/source/library/stdlib/strtoimax.o
isascii                                           .obj/source/library/ctype/isascii.o
isblank                                           .obj/source/library/ctype/isblank.o
iscntrl                                           .obj/source/library/ctype/iscntrl.o
isdigit                                           .obj/source/library/ctype/isdigit.o
isgraph                                           .obj/source/library/ctype/isgraph.o
islower                                           .obj/source/library/ctype/islower.o
                                                  .obj/source/library/ctype/toupper.o
isprint                                           .obj/source/library/ctype/isprint.o
ispunct                                           .obj/source/library/ctype/ispunct.o
isspace                                           .obj/source/library/ctype/isspace.o
                                                  .obj/source/graphic/color.o
                                                  .obj/source/library/stdio/vsscanf.o
                                                  .obj/source/library/stdlib/strtoumax.o
                                                  .obj/source/library/stdlib/strtoull.o
                                                  .obj/source/library/stdlib/strtoul.o
                                                  .obj/source/library/stdlib/strtoll.o
                                                  .obj/source/library/stdlib/strtol.o
                                                  .obj/source/library/stdlib/strtoimax.o
                                                  .obj/source/library/stdlib/strtod.o
                                                  .obj/source/library/stdlib/strntoumax.o
isupper                                           .obj/source/library/ctype/isupper.o
                                                  .obj/source/library/stdlib/strtoumax.o
                                                  .obj/source/library/stdlib/strtoull.o
                                                  .obj/source/library/stdlib/strtoul.o
                                                  .obj/source/library/stdlib/strtoll.o
                                                  .obj/source/library/stdlib/strtol.o
                                                  .obj/source/library/stdlib/strtoimax.o
                                                  .obj/source/library/ctype/tolower.o
isxdigit                                          .obj/source/library/ctype/isxdigit.o
                                                  .obj/source/graphic/color.o
jiffies                                           .obj/source/hardware/s5p6818-tick.o
                                                  .obj/source/hardware/s5p6818-tick-delay.o
key_initial                                       .obj/source/hardware/hw-key.o
                                                  .obj/source/main.o
key_st                                            .obj/source/tester-key-with-led.o
key_status_change                                 .obj/source/tester-key-with-led.o
labs                                              .obj/source/library/stdlib/labs.o
ldexp                                             .obj/source/library/math/scalbn.o
ldexpf                                            .obj/source/library/math/scalbnf.o
ldiv                                              .obj/source/library/stdlib/ldiv.o
led_all_off                                       .obj/source/tester-key-with-led.o
led_all_on                                        .obj/source/tester-key-with-led.o
led_initial                                       .obj/source/hardware/hw-led.o
                                                  .obj/source/main.o
led_set_status                                    .obj/source/hardware/hw-led.o
                                                  .obj/source/tester-key-with-led.o
llabs                                             .obj/source/library/stdlib/llabs.o
lldiv                                             .obj/source/library/stdlib/lldiv.o
log                                               .obj/source/library/math/log.o
                                                  .obj/source/library/math/log10.o
log10                                             .obj/source/library/math/log10.o
log10f                                            .obj/source/library/math/log10f.o
logf                                              .obj/source/library/math/logf.o
                                                  .obj/source/library/math/log10f.o
main                                              .obj/source/main.o
                                                  .obj/source/startup/start.o
malloc                                            .obj/source/library/malloc/malloc.o
                                                  .obj/source/graphic/surface.o
                                                  .obj/source/library/string/strdup.o
                                                  .obj/source/hardware/pwm/pwm.o
                                                  .obj/source/hardware/interrupt/interrupt.o
                                                  .obj/source/hardware/gpio/gpio.o
                                                  .obj/source/hardware/clk/clk.o
                                                  .obj/source/hardware/clk/clk-pll.o
                                                  .obj/source/hardware/clk/clk-mux.o
                                                  .obj/source/hardware/clk/clk-link.o
                                                  .obj/source/hardware/clk/clk-gate.o
                                                  .obj/source/hardware/clk/clk-fixed.o
                                                  .obj/source/hardware/clk/clk-fixed-factor.o
                                                  .obj/source/hardware/clk/clk-divider.o
                                                  .obj/source/hardware/s5p6818-serial-stdio.o
                                                  .obj/source/hardware/s5p6818-pwm.o
                                                  .obj/source/hardware/s5p6818-gpio.o
                                                  .obj/source/hardware/s5p6818-fb.o
malloc_exit                                       .obj/source/library/malloc/malloc.o
malloc_init                                       .obj/source/library/malloc/malloc.o
                                                  .obj/source/main.o
map_pixel_color                                   .obj/source/graphic/pixel.o
                                                  .obj/source/graphic/maps/software/sw_utils.o
                                                  .obj/source/graphic/maps/software/sw_fill.o
                                                  .obj/source/graphic/maps/software/sw_blit_replace.o
                                                  .obj/source/graphic/maps/software/sw_blit_alpha.o
                                                  .obj/source/graphic/surface.o
map_software_blit                                 .obj/source/graphic/maps/software/sw_blit.o
                                                  .obj/source/graphic/maps.o
map_software_fill                                 .obj/source/graphic/maps/software/sw_fill.o
                                                  .obj/source/graphic/maps.o
map_software_hline                                .obj/source/graphic/maps/software/sw_hline.o
                                                  .obj/source/graphic/maps.o
map_software_point                                .obj/source/graphic/maps/software/sw_point.o
                                                  .obj/source/graphic/maps.o
map_software_rotate                               .obj/source/graphic/maps/software/sw_rotate.o
                                                  .obj/source/graphic/maps.o
map_software_scale                                .obj/source/graphic/maps/software/sw_scale.o
                                                  .obj/source/graphic/maps.o
map_software_vline                                .obj/source/graphic/maps/software/sw_vline.o
                                                  .obj/source/graphic/maps.o
mdelay                                            .obj/source/hardware/s5p6818-tick-delay.o
                                                  .obj/source/tester-key-with-led.o
memalign                                          .obj/source/library/malloc/malloc.o
memchr                                            .obj/source/library/string/memchr.o
memcmp                                            .obj/source/arm/memcmp.o
                                                  .obj/source/library/string/strstr.o
                                                  .obj/source/library/string/strnstr.o
memcpy                                            .obj/source/arm/memcpy.o
                                                  c:/yagarto-20121222/bin/../lib/gcc/arm-none-eabi/4.7.2\libgcc.a(unwind-arm.o)
                                                  .obj/source/graphic/maps/software/sw_rotate.o
                                                  .obj/source/graphic/maps/software/sw_fill.o
                                                  .obj/source/library/stdio/vsnprintf.o
                                                  .obj/source/library/string/strlcpy.o
                                                  .obj/source/library/string/strlcat.o
                                                  .obj/source/library/string/strdup.o
                                                  .obj/source/library/malloc/malloc.o
                                                  .obj/source/startup/start.o
memmove                                           .obj/source/arm/memmove.o
                                                  .obj/source/graphic/maps/software/sw_blit_replace.o
memory_pool_create                                .obj/source/library/malloc/malloc.o
memory_pool_destroy                               .obj/source/library/malloc/malloc.o
memory_pool_stat                                  .obj/source/library/malloc/malloc.o
memscan                                           .obj/source/library/string/memscan.o
memset                                            .obj/source/arm/memset.o
                                                  .obj/source/graphic/surface.o
                                                  .obj/source/library/malloc/malloc.o
                                                  .obj/source/startup/start.o
mmu_disable                                       .obj/source/arm/cp15.o
mmu_enable                                        .obj/source/arm/cp15.o
mmu_status                                        .obj/source/arm/cp15.o
modf                                              .obj/source/library/math/modf.o
                                                  .obj/source/library/stdio/vsnprintf.o
modff                                             .obj/source/library/math/modff.o
pow                                               .obj/source/library/math/pow.o
powf                                              .obj/source/library/math/powf.o
pwm_config                                        .obj/source/hardware/pwm/pwm.o
                                                  .obj/source/hardware/s5p6818-fb.o
pwm_disable                                       .obj/source/hardware/pwm/pwm.o
                                                  .obj/source/hardware/s5p6818-fb.o
pwm_enable                                        .obj/source/hardware/pwm/pwm.o
                                                  .obj/source/hardware/s5p6818-fb.o
qsort                                             .obj/source/library/stdlib/qsort.o
rand                                              .obj/source/library/stdlib/rand.o
realloc                                           .obj/source/library/malloc/malloc.o
rect_align                                        .obj/source/graphic/rect.o
rect_enclose_points                               .obj/source/graphic/rect.o
rect_has_intersection                             .obj/source/graphic/rect.o
rect_intersect                                    .obj/source/graphic/rect.o
                                                  .obj/source/graphic/maps/software/sw_scale.o
                                                  .obj/source/graphic/maps/software/sw_rotate.o
                                                  .obj/source/graphic/maps/software/sw_fill.o
                                                  .obj/source/graphic/surface.o
rect_intersect_with_line                          .obj/source/graphic/rect.o
rect_is_empty                                     .obj/source/graphic/rect.o
rect_is_equal                                     .obj/source/graphic/rect.o
rect_union                                        .obj/source/graphic/rect.o
register_gpiochip                                 .obj/source/hardware/gpio/gpio.o
                                                  .obj/source/hardware/s5p6818-gpio.o
                                                  .obj/source/hardware/s5p6818-alv.o
register_pwm                                      .obj/source/hardware/pwm/pwm.o
                                                  .obj/source/hardware/s5p6818-pwm.o
request_irq                                       .obj/source/hardware/interrupt/interrupt.o
                                                  .obj/source/hardware/s5p6818-tick.o
                                                  .obj/source/tester-key-with-led.o
restore_core_regs                                 c:/yagarto-20121222/bin/../lib/gcc/arm-none-eabi/4.7.2\libgcc.a(libunwind.o)
                                                  c:/yagarto-20121222/bin/../lib/gcc/arm-none-eabi/4.7.2\libgcc.a(unwind-arm.o)
s5p6818_clk_exit                                  .obj/source/hardware/s5p6818-clk.o
s5p6818_clk_init                                  .obj/source/hardware/s5p6818-clk.o
                                                  .obj/source/main.o
s5p6818_fb_initial                                .obj/source/hardware/s5p6818-fb.o
                                                  .obj/source/main.o
s5p6818_gpiochip_alv_exit                         .obj/source/hardware/s5p6818-alv.o
s5p6818_gpiochip_alv_init                         .obj/source/hardware/s5p6818-alv.o
                                                  .obj/source/main.o
s5p6818_gpiochip_exit                             .obj/source/hardware/s5p6818-gpio.o
s5p6818_gpiochip_init                             .obj/source/hardware/s5p6818-gpio.o
                                                  .obj/source/main.o
s5p6818_ip_reset                                  .obj/source/hardware/s5p6818-rstcon.o
                                                  .obj/source/hardware/s5p6818-timer.o
                                                  .obj/source/hardware/s5p6818-serial.o
                                                  .obj/source/hardware/s5p6818-pwm.o
                                                  .obj/source/hardware/s5p6818-fb.o
                                                  .obj/source/hardware/s5p6818-clk.o
s5p6818_irq_exit                                  .obj/source/hardware/s5p6818-irq.o
s5p6818_irq_init                                  .obj/source/hardware/s5p6818-irq.o
                                                  .obj/source/main.o
s5p6818_pwm_exit                                  .obj/source/hardware/s5p6818-pwm.o
s5p6818_pwm_init                                  .obj/source/hardware/s5p6818-pwm.o
                                                  .obj/source/main.o
s5p6818_screen_backlight                          .obj/source/hardware/s5p6818-fb.o
s5p6818_screen_flush                              .obj/source/hardware/s5p6818-fb.o
s5p6818_screen_surface                            .obj/source/hardware/s5p6818-fb.o
s5p6818_screen_swap                               .obj/source/hardware/s5p6818-fb.o
s5p6818_serial_initial                            .obj/source/hardware/s5p6818-serial.o
                                                  .obj/source/main.o
s5p6818_serial_read                               .obj/source/hardware/s5p6818-serial.o
s5p6818_serial_setup                              .obj/source/hardware/s5p6818-serial.o
s5p6818_serial_write                              .obj/source/hardware/s5p6818-serial.o
s5p6818_serial_write_string                       .obj/source/hardware/s5p6818-serial.o
                                                  .obj/source/hardware/s5p6818-serial-stdio.o
s5p6818_tick_delay_initial                        .obj/source/hardware/s5p6818-tick-delay.o
                                                  .obj/source/main.o
s5p6818_tick_initial                              .obj/source/hardware/s5p6818-tick.o
                                                  .obj/source/main.o
s5p6818_timer_calc_tin                            .obj/source/hardware/s5p6818-timer.o
                                                  .obj/source/hardware/s5p6818-tick.o
s5p6818_timer_count                               .obj/source/hardware/s5p6818-timer.o
                                                  .obj/source/hardware/s5p6818-tick.o
s5p6818_timer_irq_clear                           .obj/source/hardware/s5p6818-timer.o
                                                  .obj/source/hardware/s5p6818-tick.o
s5p6818_timer_read                                .obj/source/hardware/s5p6818-timer.o
s5p6818_timer_reset                               .obj/source/hardware/s5p6818-timer.o
                                                  .obj/source/hardware/s5p6818-tick.o
s5p6818_timer_start                               .obj/source/hardware/s5p6818-timer.o
                                                  .obj/source/hardware/s5p6818-tick.o
s5p6818_timer_stop                                .obj/source/hardware/s5p6818-timer.o
                                                  .obj/source/hardware/s5p6818-tick.o
scalbn                                            .obj/source/library/math/scalbn.o
                                                  .obj/source/library/math/pow.o
                                                  .obj/source/library/math/k_rem_pio2.o
scalbnf                                           .obj/source/library/math/scalbnf.o
                                                  .obj/source/library/math/powf.o
                                                  .obj/source/library/math/k_rem_pio2f.o
search_gpiochip                                   .obj/source/hardware/gpio/gpio.o
                                                  .obj/source/hardware/s5p6818-gpio.o
search_pwm                                        .obj/source/hardware/pwm/pwm.o
                                                  .obj/source/hardware/s5p6818-pwm.o
                                                  .obj/source/hardware/s5p6818-fb.o
serial_printf                                     .obj/source/hardware/s5p6818-serial-stdio.o
set_pixel_info                                    .obj/source/graphic/pixel.o
                                                  .obj/source/graphic/surface.o
show_first_name_Lea                               .obj/source/tester-key-with-led.o
show_first_name_log                               .obj/source/tester-key-with-led.o
show_first_name_opt                               .obj/source/tester-key-with-led.o
show_first_name_req                               .obj/source/tester-key-with-led.o
show_first_name_sho                               .obj/source/tester-key-with-led.o
show_group_number                                 .obj/source/tester-key-with-led.o
sin                                               .obj/source/library/math/sin.o
sinf                                              .obj/source/library/math/sinf.o
sinh                                              .obj/source/library/math/sinh.o
sinhf                                             .obj/source/library/math/sinhf.o
smp_processor_id                                  .obj/source/arm/cp15.o
                                                  .obj/source/hardware/s5p6818-irq.o
snprintf                                          .obj/source/library/stdio/snprintf.o
sprintf                                           .obj/source/library/stdio/sprintf.o
sqrt                                              .obj/source/library/math/sqrt.o
sqrtf                                             .obj/source/library/math/sqrtf.o
srand                                             .obj/source/library/stdlib/rand.o
sscanf                                            .obj/source/library/stdio/sscanf.o
strcasecmp                                        .obj/source/library/string/strcasecmp.o
strcat                                            .obj/source/library/string/strcat.o
strchr                                            .obj/source/library/string/strchr.o
                                                  .obj/source/graphic/color.o
strcmp                                            .obj/source/arm/strcmp.o
                                                  .obj/source/graphic/color.o
                                                  .obj/source/library/string/strcoll.o
                                                  .obj/source/hardware/pwm/pwm.o
                                                  .obj/source/hardware/interrupt/interrupt.o
                                                  .obj/source/hardware/gpio/gpio.o
                                                  .obj/source/hardware/clk/clk.o
                                                  .obj/source/hardware/clk/clk-mux.o
                                                  .obj/source/hardware/s5p6818-clk.o
strcoll                                           .obj/source/library/string/strcoll.o
strcpy                                            .obj/source/library/string/strcpy.o
strcspn                                           .obj/source/library/string/strcspn.o
strdup                                            .obj/source/library/string/strdup.o
strerror                                          .obj/source/library/errno/strerror.o
strlcat                                           .obj/source/library/string/strlcat.o
strlcpy                                           .obj/source/library/string/strlcpy.o
strlen                                            .obj/source/library/string/strlen.o
                                                  .obj/source/library/stdio/vsnprintf.o
                                                  .obj/source/library/string/strstr.o
                                                  .obj/source/library/string/strrchr.o
                                                  .obj/source/library/string/strnstr.o
                                                  .obj/source/library/string/strlcpy.o
                                                  .obj/source/library/string/strlcat.o
                                                  .obj/source/library/string/strdup.o
                                                  .obj/source/hardware/s5p6818-serial.o
strncasecmp                                       .obj/source/library/string/strncasecmp.o
strncat                                           .obj/source/library/string/strncat.o
strnchr                                           .obj/source/library/string/strnchr.o
strncmp                                           .obj/source/arm/strncmp.o
strncpy                                           .obj/source/library/string/strncpy.o
strnicmp                                          .obj/source/library/string/strnicmp.o
strnlen                                           .obj/source/library/string/strnlen.o
strnstr                                           .obj/source/library/string/strnstr.o
strntoimax                                        .obj/source/library/stdlib/strntoimax.o
strntoumax                                        .obj/source/library/stdlib/strntoumax.o
                                                  .obj/source/library/stdio/vsscanf.o
                                                  .obj/source/library/stdlib/strntoimax.o
strpbrk                                           .obj/source/library/string/strpbrk.o
                                                  .obj/source/library/string/strsep.o
strrchr                                           .obj/source/library/string/strrchr.o
strsep                                            .obj/source/library/string/strsep.o
strspn                                            .obj/source/library/string/strspn.o
strstr                                            .obj/source/library/string/strstr.o
strtod                                            .obj/source/library/stdlib/strtod.o
                                                  .obj/source/library/stdlib/atof.o
strtoimax                                         .obj/source/library/stdlib/strtoimax.o
strtol                                            .obj/source/library/stdlib/strtol.o
                                                  .obj/source/library/stdlib/atol.o
                                                  .obj/source/library/stdlib/atoi.o
strtoll                                           .obj/source/library/stdlib/strtoll.o
                                                  .obj/source/library/stdlib/atoll.o
strtoul                                           .obj/source/library/stdlib/strtoul.o
                                                  .obj/source/graphic/color.o
strtoull                                          .obj/source/library/stdlib/strtoull.o
strtoumax                                         .obj/source/library/stdlib/strtoumax.o
surface_alloc                                     .obj/source/graphic/surface.o
                                                  .obj/source/graphic/maps/software/sw_scale.o
                                                  .obj/source/graphic/maps/software/sw_rotate.o
surface_alloc_from_gimage                         .obj/source/graphic/surface.o
surface_blit                                      .obj/source/graphic/surface.o
surface_fill                                      .obj/source/graphic/surface.o
surface_free                                      .obj/source/graphic/surface.o
                                                  .obj/source/graphic/maps/software/sw_scale.o
                                                  .obj/source/graphic/maps/software/sw_rotate.o
surface_get_clip_rect                             .obj/source/graphic/surface.o
surface_map_color                                 .obj/source/graphic/surface.o
surface_rotate                                    .obj/source/graphic/surface.o
surface_scale                                     .obj/source/graphic/surface.o
surface_set_clip_rect                             .obj/source/graphic/surface.o
surface_set_maps                                  .obj/source/graphic/maps.o
                                                  .obj/source/graphic/surface.o
                                                  .obj/source/hardware/s5p6818-fb.o
surface_sw_get_pixel                              .obj/source/graphic/maps/software/sw_utils.o
                                                  .obj/source/graphic/maps/software/sw_fill.o
                                                  .obj/source/graphic/maps/software/sw_blit_replace.o
                                                  .obj/source/graphic/maps/software/sw_blit_alpha.o
surface_sw_get_pointer                            .obj/source/graphic/maps/software/sw_utils.o
                                                  .obj/source/graphic/maps/software/sw_fill.o
                                                  .obj/source/graphic/maps/software/sw_blit_replace.o
surface_sw_set_pixel                              .obj/source/graphic/maps/software/sw_utils.o
                                                  .obj/source/graphic/maps/software/sw_point.o
                                                  .obj/source/graphic/maps/software/sw_fill.o
                                                  .obj/source/graphic/maps/software/sw_blit_replace.o
                                                  .obj/source/graphic/maps/software/sw_blit_alpha.o
surface_sw_set_pixel_with_alpha                   .obj/source/graphic/maps/software/sw_utils.o
                                                  .obj/source/graphic/maps/software/sw_point.o
surface_unmap_color                               .obj/source/graphic/surface.o
sw_blit_alpha                                     .obj/source/graphic/maps/software/sw_blit_alpha.o
                                                  .obj/source/graphic/maps/software/sw_blit.o
sw_blit_replace                                   .obj/source/graphic/maps/software/sw_blit_replace.o
                                                  .obj/source/graphic/maps/software/sw_blit.o
system_stage                                      .obj/source/tester-key-with-led.o
tan                                               .obj/source/library/math/tan.o
tanf                                              .obj/source/library/math/tanf.o
tanh                                              .obj/source/library/math/tanh.o
tanhf                                             .obj/source/library/math/tanhf.o
tester_key_led_beep                               .obj/source/tester-key-with-led.o
                                                  .obj/source/main.o
tester_reset                                      .obj/source/tester-key-with-led.o
tlb_invalidate                                    .obj/source/arm/cp15.o
toascii                                           .obj/source/library/ctype/toascii.o
tolower                                           .obj/source/library/ctype/tolower.o
                                                  .obj/source/library/string/strnicmp.o
                                                  .obj/source/library/string/strncasecmp.o
                                                  .obj/source/library/string/strcasecmp.o
toupper                                           .obj/source/library/ctype/toupper.o
ttb_get                                           .obj/source/arm/cp15.o
ttb_set                                           .obj/source/arm/cp15.o
udelay                                            .obj/source/hardware/s5p6818-tick-delay.o
unmap_pixel_color                                 .obj/source/graphic/pixel.o
                                                  .obj/source/graphic/maps/software/sw_utils.o
                                                  .obj/source/graphic/maps/software/sw_fill.o
                                                  .obj/source/graphic/maps/software/sw_blit_replace.o
                                                  .obj/source/graphic/maps/software/sw_blit_alpha.o
                                                  .obj/source/graphic/surface.o
unregister_gpiochip                               .obj/source/hardware/gpio/gpio.o
                                                  .obj/source/hardware/s5p6818-gpio.o
                                                  .obj/source/hardware/s5p6818-alv.o
unregister_pwm                                    .obj/source/hardware/pwm/pwm.o
                                                  .obj/source/hardware/s5p6818-pwm.o
vic_disable                                       .obj/source/arm/cp15.o
                                                  .obj/source/hardware/s5p6818-irq.o
vic_enable                                        .obj/source/arm/cp15.o
                                                  .obj/source/hardware/s5p6818-irq.o
vic_status                                        .obj/source/arm/cp15.o
vsnprintf                                         .obj/source/library/stdio/vsnprintf.o
                                                  .obj/source/library/stdio/sprintf.o
                                                  .obj/source/library/stdio/snprintf.o
                                                  .obj/source/hardware/s5p6818-serial-stdio.o
vsscanf                                           .obj/source/library/stdio/vsscanf.o
                                                  .obj/source/library/stdio/sscanf.o
wbuffer_disable                                   .obj/source/arm/cp15.o
wbuffer_enable                                    .obj/source/arm/cp15.o
wbuffer_status                                    .obj/source/arm/cp15.o
